(lp1
(dp2
S'kill_in_hc'
p3
I01
sS'dim'
p4
I2
sS'random_seed'
p5
I1536553990008818423
sS'hc_converge_step'
p6
I24
sS'final_number_of_components'
p7
I28
sS'sys.argv'
p8
(lp9
S'original_first_proposal.py'
p10
asS'k'
I10
sS'L'
I100
sS'N_perp_ess'
p11
I10000
sS'N_adapt'
p12
I500
sS'N_burn_in'
p13
I1000
sS'critical_r'
p14
F2
sS'N_MCMC'
p15
I10000
sS'ess'
p16
cnumpy.core.multiarray
scalar
p17
(cnumpy
dtype
p18
(S'f8'
I0
I1
tRp19
(I3
S'<'
NNNI-1
I-1
I0
tbS'\x05\xaeG\x02{\xd7\xcf?'
tRp20
sS'perplexity'
p21
g17
(g19
S'\xd9x\x91\xd9v\r\xd3?'
tRp22
sS'number_of_chain_groups'
p23
I2
sS'K_g'
p24
I15
sa(dp25
S'kill_in_hc'
p26
I01
sS'dim'
p27
I2
sS'random_seed'
p28
I4144711090116945725
sS'hc_converge_step'
p29
I25
sS'final_number_of_components'
p30
I30
sS'sys.argv'
p31
(lp32
S'original_first_proposal.py'
p33
asS'k'
I10
sS'number_of_chain_groups'
p34
I2
sS'L'
I100
sS'N_perp_ess'
p35
I10000
sS'N_adapt'
p36
I500
sS'N_burn_in'
p37
I1000
sS'critical_r'
p38
F2
sS'N_MCMC'
p39
I10000
sS'perplexity'
p40
g17
(g19
S'.\xb6\xaf\xdf\x17c\xd5?'
tRp41
sS'ess'
p42
g17
(g19
S'\x06WK%\x16\x08\xd2?'
tRp43
sS'K_g'
p44
I15
sa(dp45
S'kill_in_hc'
p46
I01
sS'dim'
p47
I2
sS'random_seed'
p48
I3328373989969516685
sS'hc_converge_step'
p49
I24
sS'final_number_of_components'
p50
I45
sS'sys.argv'
p51
(lp52
S'original_first_proposal.py'
p53
asS'k'
I10
sS'L'
I100
sS'N_perp_ess'
p54
I10000
sS'N_adapt'
p55
I500
sS'N_burn_in'
p56
I1000
sS'critical_r'
p57
F2
sS'N_MCMC'
p58
I10000
sS'ess'
p59
g17
(g19
S'\xcc\xb5\xb2D\xb42\xd2?'
tRp60
sS'perplexity'
p61
g17
(g19
S'6\x0fu6\n5\xd5?'
tRp62
sS'number_of_chain_groups'
p63
I3
sS'K_g'
p64
I15
sa(dp65
S'kill_in_hc'
p66
I01
sS'dim'
p67
I2
sS'random_seed'
p68
I3223264222557448494
sS'hc_converge_step'
p69
I29
sS'final_number_of_components'
p70
I28
sS'sys.argv'
p71
(lp72
S'original_first_proposal.py'
p73
asS'k'
I10
sS'number_of_chain_groups'
p74
I2
sS'L'
I100
sS'N_perp_ess'
p75
I10000
sS'N_adapt'
p76
I500
sS'N_burn_in'
p77
I1000
sS'critical_r'
p78
F2
sS'N_MCMC'
p79
I10000
sS'perplexity'
p80
g17
(g19
S'\x1e\x84\xff\xff\xf9t\xd6?'
tRp81
sS'ess'
p82
g17
(g19
S'=\xb3\xecn\x08\xad\xd2?'
tRp83
sS'K_g'
p84
I15
sa(dp85
S'kill_in_hc'
p86
I01
sS'dim'
p87
I2
sS'random_seed'
p88
I185046475339020629
sS'hc_converge_step'
p89
I22
sS'final_number_of_components'
p90
I44
sS'sys.argv'
p91
(lp92
S'original_first_proposal.py'
p93
asS'k'
I10
sS'L'
I100
sS'N_perp_ess'
p94
I10000
sS'N_adapt'
p95
I500
sS'N_burn_in'
p96
I1000
sS'critical_r'
p97
F2
sS'N_MCMC'
p98
I10000
sS'ess'
p99
g17
(g19
S'\x9ayY\x03\x84\x14\xd0?'
tRp100
sS'perplexity'
p101
g17
(g19
S'\x15r\x16i\x08\t\xd4?'
tRp102
sS'number_of_chain_groups'
p103
I3
sS'K_g'
p104
I15
sa(dp105
S'kill_in_hc'
p106
I01
sS'dim'
p107
I2
sS'random_seed'
p108
I2367556302489348374
sS'hc_converge_step'
p109
I21
sS'final_number_of_components'
p110
I29
sS'sys.argv'
p111
(lp112
S'original_first_proposal.py'
p113
asS'k'
I10
sS'number_of_chain_groups'
p114
I2
sS'L'
I100
sS'N_perp_ess'
p115
I10000
sS'N_adapt'
p116
I500
sS'N_burn_in'
p117
I1000
sS'critical_r'
p118
F2
sS'N_MCMC'
p119
I10000
sS'perplexity'
p120
g17
(g19
S'I\x8c\xa6:\x94x\xd4?'
tRp121
sS'ess'
p122
g17
(g19
S'\x88\x90\x9e\xe2\xba]\xd1?'
tRp123
sS'K_g'
p124
I15
sa(dp125
S'kill_in_hc'
p126
I01
sS'dim'
p127
I2
sS'random_seed'
p128
I4132448014298738082
sS'hc_converge_step'
p129
I38
sS'final_number_of_components'
p130
I30
sS'sys.argv'
p131
(lp132
S'original_first_proposal.py'
p133
asS'k'
I10
sS'L'
I100
sS'N_perp_ess'
p134
I10000
sS'N_adapt'
p135
I500
sS'N_burn_in'
p136
I1000
sS'critical_r'
p137
F2
sS'N_MCMC'
p138
I10000
sS'ess'
p139
g17
(g19
S'U\xff\xfb\x9a\xf8^\xd1?'
tRp140
sS'perplexity'
p141
g17
(g19
S'Yn+\xfe\xd1\xe3\xd4?'
tRp142
sS'number_of_chain_groups'
p143
I2
sS'K_g'
p144
I15
sa(dp145
S'kill_in_hc'
p146
I01
sS'dim'
p147
I2
sS'random_seed'
p148
I160365705121927342
sS'hc_converge_step'
p149
I28
sS'final_number_of_components'
p150
I41
sS'sys.argv'
p151
(lp152
S'original_first_proposal.py'
p153
asS'k'
I10
sS'number_of_chain_groups'
p154
I3
sS'L'
I100
sS'N_perp_ess'
p155
I10000
sS'N_adapt'
p156
I500
sS'N_burn_in'
p157
I1000
sS'critical_r'
p158
F2
sS'N_MCMC'
p159
I10000
sS'perplexity'
p160
g17
(g19
S'\x93\xa0\x1f\t\x98Y\xd4?'
tRp161
sS'ess'
p162
g17
(g19
S'\xd2$\xca\x81\xe8F\xd1?'
tRp163
sS'K_g'
p164
I15
sa(dp165
S'kill_in_hc'
p166
I01
sS'dim'
p167
I2
sS'random_seed'
p168
I2456822785688942270
sS'hc_converge_step'
p169
I44
sS'final_number_of_components'
p170
I39
sS'sys.argv'
p171
(lp172
S'original_first_proposal.py'
p173
asS'k'
I10
sS'L'
I100
sS'N_perp_ess'
p174
I10000
sS'N_adapt'
p175
I500
sS'N_burn_in'
p176
I1000
sS'critical_r'
p177
F2
sS'N_MCMC'
p178
I10000
sS'ess'
p179
g17
(g19
S'P\xa57\xf30p\xd0?'
tRp180
sS'perplexity'
p181
g17
(g19
S'\x88\xa9\xed\xf5\xab\x13\xd4?'
tRp182
sS'number_of_chain_groups'
p183
I3
sS'K_g'
p184
I15
sa(dp185
S'kill_in_hc'
p186
I01
sS'dim'
p187
I2
sS'random_seed'
p188
I2089571831541617725
sS'hc_converge_step'
p189
I38
sS'final_number_of_components'
p190
I29
sS'sys.argv'
p191
(lp192
S'original_first_proposal.py'
p193
asS'k'
I10
sS'number_of_chain_groups'
p194
I2
sS'L'
I100
sS'N_perp_ess'
p195
I10000
sS'N_adapt'
p196
I500
sS'N_burn_in'
p197
I1000
sS'critical_r'
p198
F2
sS'N_MCMC'
p199
I10000
sS'perplexity'
p200
g17
(g19
S'\x90\x98g>H+\xd3?'
tRp201
sS'ess'
p202
g17
(g19
S'\xe1\xce\xfca\xf4J\xcd?'
tRp203
sS'K_g'
p204
I15
sa(dp205
S'N_max_vb'
p206
I100
sS'dim'
p207
I2
sS'random_seed'
p208
I3205917096146157863
sS'final_number_of_components'
p209
I12
sS'sys.argv'
p210
(lp211
S'pure_variational_first_proposal.py'
p212
asS'vb_initialization'
p213
S'package_default'
p214
sS'vb_initial_K'
p215
I100
sS'vb_rel_tol'
p216
F1e-10
sS'N_adapt'
p217
I500
sS'N_burn_in'
p218
I1000
sS'N_MCMC'
p219
I10000
sS'N_perp_ess'
p220
I10000
sS'ess'
p221
g17
(g19
S'y\xf4\x80\x04e\x0f\xdd?'
tRp222
sS'perplexity'
p223
g17
(g19
S'\x1a\x98m\xad\xf7p\xe4?'
tRp224
sS'vb_converge_step'
p225
NsS'vb_abs_tol'
p226
F1.0000000000000001e-05
sS'k'
I10
sS'N_thin'
p227
I100
sa(dp228
S'N_max_vb'
p229
I100
sS'dim'
p230
I2
sS'random_seed'
p231
I4427070952302124725
sS'final_number_of_components'
p232
I10
sS'sys.argv'
p233
(lp234
S'pure_variational_first_proposal.py'
p235
asS'vb_initialization'
p236
S'package_default'
p237
sS'vb_initial_K'
p238
I100
sS'vb_rel_tol'
p239
F1e-10
sS'N_adapt'
p240
I500
sS'N_burn_in'
p241
I1000
sS'N_MCMC'
p242
I10000
sS'N_perp_ess'
p243
I10000
sS'vb_converge_step'
p244
NsS'perplexity'
p245
g17
(g19
S'*\xb0\xfb\xac\xd0`\xe1?'
tRp246
sS'ess'
p247
g17
(g19
S'z\xe2\xf7\xe9\xe9\x9e\xd5?'
tRp248
sS'vb_abs_tol'
p249
F1.0000000000000001e-05
sS'k'
I10
sS'N_thin'
p250
I100
sa(dp251
S'N_max_vb'
p252
I100
sS'dim'
p253
I2
sS'random_seed'
p254
I3554504403083508910
sS'final_number_of_components'
p255
I13
sS'sys.argv'
p256
(lp257
S'pure_variational_first_proposal.py'
p258
asS'vb_initialization'
p259
S'package_default'
p260
sS'vb_initial_K'
p261
I100
sS'vb_rel_tol'
p262
F1e-10
sS'N_adapt'
p263
I500
sS'N_burn_in'
p264
I1000
sS'N_MCMC'
p265
I10000
sS'N_perp_ess'
p266
I10000
sS'ess'
p267
g17
(g19
S'\x8f\x88\x80Ozn\xdf?'
tRp268
sS'perplexity'
p269
g17
(g19
S'\xeek\xa8#qX\xe4?'
tRp270
sS'vb_converge_step'
p271
NsS'vb_abs_tol'
p272
F1.0000000000000001e-05
sS'k'
I10
sS'N_thin'
p273
I100
sa(dp274
S'N_max_vb'
p275
I100
sS'dim'
p276
I2
sS'random_seed'
p277
I2589207831524069333
sS'final_number_of_components'
p278
I14
sS'sys.argv'
p279
(lp280
S'pure_variational_first_proposal.py'
p281
asS'vb_initialization'
p282
S'package_default'
p283
sS'vb_initial_K'
p284
I100
sS'vb_rel_tol'
p285
F1e-10
sS'N_adapt'
p286
I500
sS'N_burn_in'
p287
I1000
sS'N_MCMC'
p288
I10000
sS'N_perp_ess'
p289
I10000
sS'vb_converge_step'
p290
NsS'perplexity'
p291
g17
(g19
S'\x86\xbf\xcb*~E\xe6?'
tRp292
sS'ess'
p293
g17
(g19
S']\xfe\x0b\x8b\x0eq\xe2?'
tRp294
sS'vb_abs_tol'
p295
F1.0000000000000001e-05
sS'k'
I10
sS'N_thin'
p296
I100
sa(dp297
S'N_max_vb'
p298
I100
sS'dim'
p299
I2
sS'random_seed'
p300
I1889811211115766469
sS'final_number_of_components'
p301
I14
sS'sys.argv'
p302
(lp303
S'pure_variational_first_proposal.py'
p304
asS'vb_initialization'
p305
S'package_default'
p306
sS'vb_initial_K'
p307
I100
sS'vb_rel_tol'
p308
F1e-10
sS'N_adapt'
p309
I500
sS'N_burn_in'
p310
I1000
sS'N_MCMC'
p311
I10000
sS'N_perp_ess'
p312
I10000
sS'ess'
p313
g17
(g19
S'\x99$7\xcf3Z\xe2?'
tRp314
sS'perplexity'
p315
g17
(g19
S'\xbe[Hk\x91(\xe6?'
tRp316
sS'vb_converge_step'
p317
NsS'vb_abs_tol'
p318
F1.0000000000000001e-05
sS'k'
I10
sS'N_thin'
p319
I100
sa(dp320
S'N_max_vb'
p321
I100
sS'dim'
p322
I2
sS'random_seed'
p323
I2019130394447986864
sS'final_number_of_components'
p324
I15
sS'sys.argv'
p325
(lp326
S'pure_variational_first_proposal.py'
p327
asS'vb_initialization'
p328
S'package_default'
p329
sS'vb_initial_K'
p330
I100
sS'vb_rel_tol'
p331
F1e-10
sS'N_adapt'
p332
I500
sS'N_burn_in'
p333
I1000
sS'N_MCMC'
p334
I10000
sS'N_perp_ess'
p335
I10000
sS'vb_converge_step'
p336
NsS'perplexity'
p337
g17
(g19
S'\x1f\xd0\xd1\xdd\xdd\xa7\xe6?'
tRp338
sS'ess'
p339
g17
(g19
S'\x10\xb0\xab\x04\xd5o\xe3?'
tRp340
sS'vb_abs_tol'
p341
F1.0000000000000001e-05
sS'k'
I10
sS'N_thin'
p342
I100
sa(dp343
S'N_max_vb'
p344
I100
sS'dim'
p345
I2
sS'random_seed'
p346
I2123695965757022270
sS'final_number_of_components'
p347
I15
sS'sys.argv'
p348
(lp349
S'pure_variational_first_proposal.py'
p350
asS'vb_initialization'
p351
S'package_default'
p352
sS'vb_initial_K'
p353
I100
sS'vb_rel_tol'
p354
F1e-10
sS'N_adapt'
p355
I500
sS'N_burn_in'
p356
I1000
sS'N_MCMC'
p357
I10000
sS'N_perp_ess'
p358
I10000
sS'ess'
p359
g17
(g19
S'c\x7f\xc3\xcf\x98x\xe3?'
tRp360
sS'perplexity'
p361
g17
(g19
S'\xd8\xb9\xeeg\xe1\xec\xe6?'
tRp362
sS'vb_converge_step'
p363
NsS'vb_abs_tol'
p364
F1.0000000000000001e-05
sS'k'
I10
sS'N_thin'
p365
I100
sa(dp366
S'N_max_vb'
p367
I100
sS'dim'
p368
I2
sS'random_seed'
p369
I3843965480362235487
sS'final_number_of_components'
p370
I14
sS'sys.argv'
p371
(lp372
S'pure_variational_first_proposal.py'
p373
asS'vb_initialization'
p374
S'package_default'
p375
sS'vb_initial_K'
p376
I100
sS'vb_rel_tol'
p377
F1e-10
sS'N_adapt'
p378
I500
sS'N_burn_in'
p379
I1000
sS'N_MCMC'
p380
I10000
sS'N_perp_ess'
p381
I10000
sS'vb_converge_step'
p382
NsS'perplexity'
p383
g17
(g19
S'\xf5/u)\x17v\xe6?'
tRp384
sS'ess'
p385
g17
(g19
S'\x8b+0\xbe\x8b\x8f\xe2?'
tRp386
sS'vb_abs_tol'
p387
F1.0000000000000001e-05
sS'k'
I10
sS'N_thin'
p388
I100
sa(dp389
S'N_max_vb'
p390
I100
sS'dim'
p391
I2
sS'random_seed'
p392
I3958061454630285839
sS'final_number_of_components'
p393
I13
sS'sys.argv'
p394
(lp395
S'pure_variational_first_proposal.py'
p396
asS'vb_initialization'
p397
S'package_default'
p398
sS'vb_initial_K'
p399
I100
sS'vb_rel_tol'
p400
F1e-10
sS'N_adapt'
p401
I500
sS'N_burn_in'
p402
I1000
sS'N_MCMC'
p403
I10000
sS'N_perp_ess'
p404
I10000
sS'ess'
p405
g17
(g19
S'o\xdeE7\xbc\x95\xe0?'
tRp406
sS'perplexity'
p407
g17
(g19
S'\xb3\xb8\t\x02\x1e?\xe5?'
tRp408
sS'vb_converge_step'
p409
NsS'vb_abs_tol'
p410
F1.0000000000000001e-05
sS'k'
I10
sS'N_thin'
p411
I100
sa(dp412
S'N_max_vb'
p413
I100
sS'dim'
p414
I2
sS'random_seed'
p415
I3792001825114484310
sS'final_number_of_components'
p416
I14
sS'sys.argv'
p417
(lp418
S'pure_variational_first_proposal.py'
p419
asS'vb_initialization'
p420
S'package_default'
p421
sS'vb_initial_K'
p422
I100
sS'vb_rel_tol'
p423
F1e-10
sS'N_adapt'
p424
I500
sS'N_burn_in'
p425
I1000
sS'N_MCMC'
p426
I10000
sS'N_perp_ess'
p427
I10000
sS'vb_converge_step'
p428
NsS'perplexity'
p429
g17
(g19
S'*\xdb\xe7\xae\x7f\x03\xe7?'
tRp430
sS'ess'
p431
g17
(g19
S" '}\x84\xfb\xf7\xe3?"
tRp432
sS'vb_abs_tol'
p433
F1.0000000000000001e-05
sS'k'
I10
sS'N_thin'
p434
I100
sa(dp435
S'N_max_vb'
p436
I100
sS'dim'
p437
I10
sS'random_seed'
p438
I1706190235456643388
sS'final_number_of_components'
p439
I17
sS'sys.argv'
p440
(lp441
S'pure_variational_first_proposal.py'
p442
asS'vb_initialization'
p443
S'package_default'
p444
sS'vb_initial_K'
p445
I100
sS'vb_rel_tol'
p446
F1e-10
sS'N_adapt'
p447
I500
sS'N_burn_in'
p448
I1000
sS'N_MCMC'
p449
I10000
sS'N_perp_ess'
p450
I10000
sS'ess'
p451
g17
(g19
S'\xce\xc7\xe4\xe8\xd0\xed\xa9?'
tRp452
sS'perplexity'
p453
g17
(g19
S'T\xe66e\x87\xe0\xbb?'
tRp454
sS'vb_converge_step'
p455
NsS'vb_abs_tol'
p456
F1.0000000000000001e-05
sS'k'
I10
sS'N_thin'
p457
I100
sa(dp458
S'N_max_vb'
p459
I100
sS'dim'
p460
I10
sS'random_seed'
p461
I750557597656699171
sS'final_number_of_components'
p462
I14
sS'sys.argv'
p463
(lp464
S'pure_variational_first_proposal.py'
p465
asS'vb_initialization'
p466
S'package_default'
p467
sS'vb_initial_K'
p468
I100
sS'vb_rel_tol'
p469
F1e-10
sS'N_adapt'
p470
I500
sS'N_burn_in'
p471
I1000
sS'N_MCMC'
p472
I10000
sS'N_perp_ess'
p473
I10000
sS'vb_converge_step'
p474
NsS'perplexity'
p475
g17
(g19
S'\xc2W#h\x9bX\xb9?'
tRp476
sS'ess'
p477
g17
(g19
S'\xbc8*\xb9\xb1\xb4\xaf?'
tRp478
sS'vb_abs_tol'
p479
F1.0000000000000001e-05
sS'k'
I10
sS'N_thin'
p480
I100
sa(dp481
S'N_max_vb'
p482
I100
sS'dim'
p483
I10
sS'random_seed'
p484
I3879860869372217250
sS'final_number_of_components'
p485
I12
sS'sys.argv'
p486
(lp487
S'pure_variational_first_proposal.py'
p488
asS'vb_initialization'
p489
S'package_default'
p490
sS'vb_initial_K'
p491
I100
sS'vb_rel_tol'
p492
F1e-10
sS'N_adapt'
p493
I500
sS'N_burn_in'
p494
I1000
sS'N_MCMC'
p495
I10000
sS'N_perp_ess'
p496
I10000
sS'ess'
p497
g17
(g19
S'\xf3\xf7>QiF\xb0?'
tRp498
sS'perplexity'
p499
g17
(g19
S'D[\xda"E&\xbb?'
tRp500
sS'vb_converge_step'
p501
NsS'vb_abs_tol'
p502
F1.0000000000000001e-05
sS'k'
I10
sS'N_thin'
p503
I100
sa(dp504
S'N_max_vb'
p505
I100
sS'dim'
p506
I10
sS'random_seed'
p507
I2258318410064720562
sS'final_number_of_components'
p508
I14
sS'sys.argv'
p509
(lp510
S'pure_variational_first_proposal.py'
p511
asS'vb_initialization'
p512
S'package_default'
p513
sS'vb_initial_K'
p514
I100
sS'vb_rel_tol'
p515
F1e-10
sS'N_adapt'
p516
I500
sS'N_burn_in'
p517
I1000
sS'N_MCMC'
p518
I10000
sS'N_perp_ess'
p519
I10000
sS'vb_converge_step'
p520
NsS'perplexity'
p521
g17
(g19
S'\xaaf\x97\xe9\xbe\x01\xbc?'
tRp522
sS'ess'
p523
g17
(g19
S'\xf8Vqx,\xff\xae?'
tRp524
sS'vb_abs_tol'
p525
F1.0000000000000001e-05
sS'k'
I10
sS'N_thin'
p526
I100
sa(dp527
S'N_max_vb'
p528
I100
sS'dim'
p529
I10
sS'random_seed'
p530
I4294707317787246908
sS'final_number_of_components'
p531
I18
sS'sys.argv'
p532
(lp533
S'pure_variational_first_proposal.py'
p534
asS'vb_initialization'
p535
S'package_default'
p536
sS'vb_initial_K'
p537
I100
sS'vb_rel_tol'
p538
F1e-10
sS'N_adapt'
p539
I500
sS'N_burn_in'
p540
I1000
sS'N_MCMC'
p541
I10000
sS'N_perp_ess'
p542
I10000
sS'ess'
p543
g17
(g19
S'\xa0\xdd8\xf6\xf9\xd4\xa9?'
tRp544
sS'perplexity'
p545
g17
(g19
S'\xd8y\xa9\x13\x9a\x92\xba?'
tRp546
sS'vb_converge_step'
p547
NsS'vb_abs_tol'
p548
F1.0000000000000001e-05
sS'k'
I10
sS'N_thin'
p549
I100
sa(dp550
S'N_max_vb'
p551
I100
sS'dim'
p552
I10
sS'random_seed'
p553
I4051735092426301892
sS'final_number_of_components'
p554
I6
sS'sys.argv'
p555
(lp556
S'pure_variational_first_proposal.py'
p557
asS'vb_initialization'
p558
S'package_default'
p559
sS'vb_initial_K'
p560
I100
sS'vb_rel_tol'
p561
F1e-10
sS'N_adapt'
p562
I500
sS'N_burn_in'
p563
I1000
sS'N_MCMC'
p564
I10000
sS'N_perp_ess'
p565
I10000
sS'vb_converge_step'
p566
NsS'perplexity'
p567
g17
(g19
S'\x88m3I\x03\x08\xc2?'
tRp568
sS'ess'
p569
g17
(g19
S'\xb4\x033\xfc\xca\x1e\xba?'
tRp570
sS'vb_abs_tol'
p571
F1.0000000000000001e-05
sS'k'
I10
sS'N_thin'
p572
I100
sa(dp573
S'N_max_vb'
p574
I100
sS'dim'
p575
I10
sS'random_seed'
p576
I2757330275130943486
sS'final_number_of_components'
p577
I17
sS'sys.argv'
p578
(lp579
S'pure_variational_first_proposal.py'
p580
asS'vb_initialization'
p581
S'package_default'
p582
sS'vb_initial_K'
p583
I100
sS'vb_rel_tol'
p584
F1e-10
sS'N_adapt'
p585
I500
sS'N_burn_in'
p586
I1000
sS'N_MCMC'
p587
I10000
sS'N_perp_ess'
p588
I10000
sS'ess'
p589
g17
(g19
S'\xe3\xdf\x84\xed\xc0\x9a\xa9?'
tRp590
sS'perplexity'
p591
g17
(g19
S'\xe0\x15\x0e\xda\xdc\xdf\xbc?'
tRp592
sS'vb_converge_step'
p593
NsS'vb_abs_tol'
p594
F1.0000000000000001e-05
sS'k'
I10
sS'N_thin'
p595
I100
sa(dp596
S'N_max_vb'
p597
I100
sS'dim'
p598
I10
sS'random_seed'
p599
I4104633850065150404
sS'final_number_of_components'
p600
I17
sS'sys.argv'
p601
(lp602
S'pure_variational_first_proposal.py'
p603
asS'vb_initialization'
p604
S'package_default'
p605
sS'vb_initial_K'
p606
I100
sS'vb_rel_tol'
p607
F1e-10
sS'N_adapt'
p608
I500
sS'N_burn_in'
p609
I1000
sS'N_MCMC'
p610
I10000
sS'N_perp_ess'
p611
I10000
sS'vb_converge_step'
p612
NsS'perplexity'
p613
g17
(g19
S'\xa5\x10\tZ`\xce\xbf?'
tRp614
sS'ess'
p615
g17
(g19
S'\xa1Zm\xa3\xba.\xb1?'
tRp616
sS'vb_abs_tol'
p617
F1.0000000000000001e-05
sS'k'
I10
sS'N_thin'
p618
I100
sa(dp619
S'N_max_vb'
p620
I100
sS'dim'
p621
I10
sS'random_seed'
p622
I475426488005837738
sS'final_number_of_components'
p623
I11
sS'sys.argv'
p624
(lp625
S'pure_variational_first_proposal.py'
p626
asS'vb_initialization'
p627
S'package_default'
p628
sS'vb_initial_K'
p629
I100
sS'vb_rel_tol'
p630
F1e-10
sS'N_adapt'
p631
I500
sS'N_burn_in'
p632
I1000
sS'N_MCMC'
p633
I10000
sS'N_perp_ess'
p634
I10000
sS'ess'
p635
g17
(g19
S'\xa7yv\x86P\x17\xb0?'
tRp636
sS'perplexity'
p637
g17
(g19
S'\x1c\xdb\x88\xd9bx\xbd?'
tRp638
sS'vb_converge_step'
p639
NsS'vb_abs_tol'
p640
F1.0000000000000001e-05
sS'k'
I10
sS'N_thin'
p641
I100
sa(dp642
S'N_max_vb'
p643
I100
sS'dim'
p644
I10
sS'random_seed'
p645
I4301090705527892870
sS'final_number_of_components'
p646
I13
sS'sys.argv'
p647
(lp648
S'pure_variational_first_proposal.py'
p649
asS'vb_initialization'
p650
S'package_default'
p651
sS'vb_initial_K'
p652
I100
sS'vb_rel_tol'
p653
F1e-10
sS'N_adapt'
p654
I500
sS'N_burn_in'
p655
I1000
sS'N_MCMC'
p656
I10000
sS'N_perp_ess'
p657
I10000
sS'vb_converge_step'
p658
NsS'perplexity'
p659
g17
(g19
S'o\xad\xef\x97\xef\x9a\xbb?'
tRp660
sS'ess'
p661
g17
(g19
S'\xa04n\xc2~\xcf\xb0?'
tRp662
sS'vb_abs_tol'
p663
F1.0000000000000001e-05
sS'k'
I10
sS'N_thin'
p664
I100
sa(dp665
S'kill_in_hc'
p666
I01
sS'dim'
p667
I10
sS'random_seed'
p668
I469215383761896820
sS'hc_converge_step'
p669
I17
sS'final_number_of_components'
p670
I30
sS'sys.argv'
p671
(lp672
S'original_first_proposal.py'
p673
asS'k'
I10
sS'L'
I100
sS'N_perp_ess'
p674
I10000
sS'N_adapt'
p675
I500
sS'N_burn_in'
p676
I1000
sS'critical_r'
p677
F2
sS'N_MCMC'
p678
I20000
sS'ess'
p679
g17
(g19
S'\r\xbe\x820\x85\xa2\xd2?'
tRp680
sS'perplexity'
p681
g17
(g19
S'\xca\x96\x8d\xf1@\x03\xd6?'
tRp682
sS'number_of_chain_groups'
p683
I2
sS'K_g'
p684
I15
sa(dp685
S'kill_in_hc'
p686
I01
sS'dim'
p687
I10
sS'random_seed'
p688
I2630275887849753253
sS'hc_converge_step'
p689
I18
sS'final_number_of_components'
p690
I30
sS'sys.argv'
p691
(lp692
S'original_first_proposal.py'
p693
asS'k'
I10
sS'number_of_chain_groups'
p694
I2
sS'L'
I100
sS'N_perp_ess'
p695
I10000
sS'N_adapt'
p696
I500
sS'N_burn_in'
p697
I1000
sS'critical_r'
p698
F2
sS'N_MCMC'
p699
I20000
sS'perplexity'
p700
g17
(g19
S'\x91\xdf\xc8\x8e\x98\x93\xd5?'
tRp701
sS'ess'
p702
g17
(g19
S'\xe2\xd0\x01\x8aY\x0e\xd2?'
tRp703
sS'K_g'
p704
I15
sa(dp705
S'kill_in_hc'
p706
I01
sS'dim'
p707
I10
sS'random_seed'
p708
I775010004927758282
sS'hc_converge_step'
p709
I21
sS'final_number_of_components'
p710
I30
sS'sys.argv'
p711
(lp712
S'original_first_proposal.py'
p713
asS'k'
I10
sS'L'
I100
sS'N_perp_ess'
p714
I10000
sS'N_adapt'
p715
I500
sS'N_burn_in'
p716
I1000
sS'critical_r'
p717
F2
sS'N_MCMC'
p718
I20000
sS'ess'
p719
g17
(g19
S']L~\xb1&\xdf\xd1?'
tRp720
sS'perplexity'
p721
g17
(g19
S'\xf8\x91\xd4.\xe1p\xd5?'
tRp722
sS'number_of_chain_groups'
p723
I2
sS'K_g'
p724
I15
sa(dp725
S'kill_in_hc'
p726
I01
sS'dim'
p727
I10
sS'random_seed'
p728
I3105898951803687785
sS'hc_converge_step'
p729
I17
sS'final_number_of_components'
p730
I30
sS'sys.argv'
p731
(lp732
S'original_first_proposal.py'
p733
asS'k'
I10
sS'number_of_chain_groups'
p734
I2
sS'L'
I100
sS'N_perp_ess'
p735
I10000
sS'N_adapt'
p736
I500
sS'N_burn_in'
p737
I1000
sS'critical_r'
p738
F2
sS'N_MCMC'
p739
I20000
sS'perplexity'
p740
g17
(g19
S'\xa8\x9a1\x98|\xbc\xd4?'
tRp741
sS'ess'
p742
g17
(g19
S'(\xc1\xde\xa8m\xca\xd0?'
tRp743
sS'K_g'
p744
I15
sa(dp745
S'kill_in_hc'
p746
I01
sS'dim'
p747
I10
sS'random_seed'
p748
I3113365240172854425
sS'hc_converge_step'
p749
I20
sS'final_number_of_components'
p750
I30
sS'sys.argv'
p751
(lp752
S'original_first_proposal.py'
p753
asS'k'
I10
sS'L'
I100
sS'N_perp_ess'
p754
I10000
sS'N_adapt'
p755
I500
sS'N_burn_in'
p756
I1000
sS'critical_r'
p757
F2
sS'N_MCMC'
p758
I20000
sS'ess'
p759
g17
(g19
S'\x83\xc8\xa7\x9f.\xc3\xd1?'
tRp760
sS'perplexity'
p761
g17
(g19
S'Z\x17r\xd1\x8b\x89\xd5?'
tRp762
sS'number_of_chain_groups'
p763
I2
sS'K_g'
p764
I15
sa(dp765
S'kill_in_hc'
p766
I01
sS'dim'
p767
I10
sS'random_seed'
p768
I4119963995570132291
sS'hc_converge_step'
p769
I26
sS'final_number_of_components'
p770
I30
sS'sys.argv'
p771
(lp772
S'original_first_proposal.py'
p773
asS'k'
I10
sS'number_of_chain_groups'
p774
I2
sS'L'
I100
sS'N_perp_ess'
p775
I10000
sS'N_adapt'
p776
I500
sS'N_burn_in'
p777
I1000
sS'critical_r'
p778
F2
sS'N_MCMC'
p779
I20000
sS'perplexity'
p780
g17
(g19
S'\x91\xf2\xe6\xf1\xac>\xd6?'
tRp781
sS'ess'
p782
g17
(g19
S'(\xa26G\x14\xb3\xd2?'
tRp783
sS'K_g'
p784
I15
sa(dp785
S'kill_in_hc'
p786
I01
sS'dim'
p787
I10
sS'random_seed'
p788
I4159382112553833304
sS'hc_converge_step'
p789
I15
sS'final_number_of_components'
p790
I30
sS'sys.argv'
p791
(lp792
S'original_first_proposal.py'
p793
asS'k'
I10
sS'L'
I100
sS'N_perp_ess'
p794
I10000
sS'N_adapt'
p795
I500
sS'N_burn_in'
p796
I1000
sS'critical_r'
p797
F2
sS'N_MCMC'
p798
I20000
sS'ess'
p799
g17
(g19
S'\xd0\x12\xa4K\xe0\xed\xd1?'
tRp800
sS'perplexity'
p801
g17
(g19
S'm.\xd8\xc1il\xd5?'
tRp802
sS'number_of_chain_groups'
p803
I2
sS'K_g'
p804
I15
sa(dp805
S'kill_in_hc'
p806
I01
sS'dim'
p807
I10
sS'random_seed'
p808
I973965607835932698
sS'hc_converge_step'
p809
I13
sS'final_number_of_components'
p810
I30
sS'sys.argv'
p811
(lp812
S'original_first_proposal.py'
p813
asS'k'
I10
sS'number_of_chain_groups'
p814
I2
sS'L'
I100
sS'N_perp_ess'
p815
I10000
sS'N_adapt'
p816
I500
sS'N_burn_in'
p817
I1000
sS'critical_r'
p818
F2
sS'N_MCMC'
p819
I20000
sS'perplexity'
p820
g17
(g19
S')\x00V3m\xa1\xd5?'
tRp821
sS'ess'
p822
g17
(g19
S'\x99m\xce&]\xf8\xd1?'
tRp823
sS'K_g'
p824
I15
sa(dp825
S'kill_in_hc'
p826
I01
sS'dim'
p827
I10
sS'random_seed'
p828
I3709467773340826896
sS'hc_converge_step'
p829
I14
sS'final_number_of_components'
p830
I30
sS'sys.argv'
p831
(lp832
S'original_first_proposal.py'
p833
asS'k'
I10
sS'L'
I100
sS'N_perp_ess'
p834
I10000
sS'N_adapt'
p835
I500
sS'N_burn_in'
p836
I1000
sS'critical_r'
p837
F2
sS'N_MCMC'
p838
I20000
sS'ess'
p839
g17
(g19
S'\xde\x02\xe2\x8e\x14\xfd\xd1?'
tRp840
sS'perplexity'
p841
g17
(g19
S'\xc1L\xee\xee`\x7f\xd5?'
tRp842
sS'number_of_chain_groups'
p843
I2
sS'K_g'
p844
I15
sa(dp845
S'kill_in_hc'
p846
I01
sS'dim'
p847
I10
sS'random_seed'
p848
I1639187229236788540
sS'hc_converge_step'
p849
I14
sS'final_number_of_components'
p850
I30
sS'sys.argv'
p851
(lp852
S'original_first_proposal.py'
p853
asS'k'
I10
sS'number_of_chain_groups'
p854
I2
sS'L'
I100
sS'N_perp_ess'
p855
I10000
sS'N_adapt'
p856
I500
sS'N_burn_in'
p857
I1000
sS'critical_r'
p858
F2
sS'N_MCMC'
p859
I20000
sS'perplexity'
p860
g17
(g19
S'\x88\xe6\xa7\xbbO\x17\xd5?'
tRp861
sS'ess'
p862
g17
(g19
S'h\xe1:4^\x8b\xd1?'
tRp863
sS'K_g'
p864
I15
sa(dp865
S'N_max_vb'
p866
I100
sS'dim'
p867
I10
sS'random_seed'
p868
I1346179390166019962
sS'final_number_of_components'
p869
I5
sS'sys.argv'
p870
(lp871
S'pure_variational_first_proposal.py'
p872
asS'vb_initialization'
p873
S'package_default'
p874
sS'vb_initial_K'
p875
I10
sS'vb_rel_tol'
p876
F1e-10
sS'N_adapt'
p877
I500
sS'N_burn_in'
p878
I1000
sS'N_MCMC'
p879
I20000
sS'N_perp_ess'
p880
I10000
sS'ess'
p881
g17
(g19
S'\xb7{\xca\xa5F(\xbe?'
tRp882
sS'perplexity'
p883
g17
(g19
S'1E\xbe\xb7m\xe9\xc3?'
tRp884
sS'vb_converge_step'
p885
NsS'vb_abs_tol'
p886
F1.0000000000000001e-05
sS'k'
I10
sS'N_thin'
p887
I100
sa(dp888
S'N_max_vb'
p889
I100
sS'dim'
p890
I10
sS'random_seed'
p891
I2740109404152646941
sS'final_number_of_components'
p892
I5
sS'sys.argv'
p893
(lp894
S'pure_variational_first_proposal.py'
p895
asS'vb_initialization'
p896
S'package_default'
p897
sS'vb_initial_K'
p898
I10
sS'vb_rel_tol'
p899
F1e-10
sS'N_adapt'
p900
I500
sS'N_burn_in'
p901
I1000
sS'N_MCMC'
p902
I20000
sS'N_perp_ess'
p903
I10000
sS'vb_converge_step'
p904
NsS'perplexity'
p905
g17
(g19
S'voq\xbc8\xcd\xc4?'
tRp906
sS'ess'
p907
g17
(g19
S'\x06\xe1\xec\xe9\x1b\xae\xbf?'
tRp908
sS'vb_abs_tol'
p909
F1.0000000000000001e-05
sS'k'
I10
sS'N_thin'
p910
I100
sa(dp911
S'N_max_vb'
p912
I100
sS'dim'
p913
I10
sS'random_seed'
p914
I3461580755389955697
sS'final_number_of_components'
p915
I4
sS'sys.argv'
p916
(lp917
S'pure_variational_first_proposal.py'
p918
asS'vb_initialization'
p919
S'package_default'
p920
sS'vb_initial_K'
p921
I10
sS'vb_rel_tol'
p922
F1e-10
sS'N_adapt'
p923
I500
sS'N_burn_in'
p924
I1000
sS'N_MCMC'
p925
I20000
sS'N_perp_ess'
p926
I10000
sS'ess'
p927
g17
(g19
S'X\xf6[(\xa6\xeb\xc4?'
tRp928
sS'perplexity'
p929
g17
(g19
S'\x86\x05V\xce\x13\xd9\xcb?'
tRp930
sS'vb_converge_step'
p931
NsS'vb_abs_tol'
p932
F1.0000000000000001e-05
sS'k'
I10
sS'N_thin'
p933
I100
sa(dp934
S'N_max_vb'
p935
I100
sS'dim'
p936
I10
sS'random_seed'
p937
I2795568829814533583
sS'final_number_of_components'
p938
I4
sS'sys.argv'
p939
(lp940
S'pure_variational_first_proposal.py'
p941
asS'vb_initialization'
p942
S'package_default'
p943
sS'vb_initial_K'
p944
I10
sS'vb_rel_tol'
p945
F1e-10
sS'N_adapt'
p946
I500
sS'N_burn_in'
p947
I1000
sS'N_MCMC'
p948
I20000
sS'N_perp_ess'
p949
I10000
sS'vb_converge_step'
p950
NsS'perplexity'
p951
g17
(g19
S'Q\xd6i\xaa50\xc8?'
tRp952
sS'ess'
p953
g17
(g19
S'\xa7\xe5\xb0E\xa5+\xc3?'
tRp954
sS'vb_abs_tol'
p955
F1.0000000000000001e-05
sS'k'
I10
sS'N_thin'
p956
I100
sa(dp957
S'N_max_vb'
p958
I100
sS'dim'
p959
I10
sS'random_seed'
p960
I1828154298241667892
sS'final_number_of_components'
p961
I4
sS'sys.argv'
p962
(lp963
S'pure_variational_first_proposal.py'
p964
asS'vb_initialization'
p965
S'package_default'
p966
sS'vb_initial_K'
p967
I10
sS'vb_rel_tol'
p968
F1e-10
sS'N_adapt'
p969
I500
sS'N_burn_in'
p970
I1000
sS'N_MCMC'
p971
I20000
sS'N_perp_ess'
p972
I10000
sS'ess'
p973
g17
(g19
S'\x16\xc6%,\x94\xd0\xc3?'
tRp974
sS'perplexity'
p975
g17
(g19
S'<?#\xb9)\xba\xc8?'
tRp976
sS'vb_converge_step'
p977
NsS'vb_abs_tol'
p978
F1.0000000000000001e-05
sS'k'
I10
sS'N_thin'
p979
I100
sa(dp980
S'N_max_vb'
p981
I100
sS'dim'
p982
I10
sS'random_seed'
p983
I3425629401059256689
sS'final_number_of_components'
p984
I6
sS'sys.argv'
p985
(lp986
S'pure_variational_first_proposal.py'
p987
asS'vb_initialization'
p988
S'package_default'
p989
sS'vb_initial_K'
p990
I10
sS'vb_rel_tol'
p991
F1e-10
sS'N_adapt'
p992
I500
sS'N_burn_in'
p993
I1000
sS'N_MCMC'
p994
I20000
sS'N_perp_ess'
p995
I10000
sS'vb_converge_step'
p996
NsS'perplexity'
p997
g17
(g19
S'\xc5Ep\x880\x1b\xc3?'
tRp998
sS'ess'
p999
g17
(g19
S'\x95\x1am\x83GE\xbc?'
tRp1000
sS'vb_abs_tol'
p1001
F1.0000000000000001e-05
sS'k'
I10
sS'N_thin'
p1002
I100
sa(dp1003
S'N_max_vb'
p1004
I100
sS'dim'
p1005
I10
sS'random_seed'
p1006
I880801800948165950
sS'final_number_of_components'
p1007
I3
sS'sys.argv'
p1008
(lp1009
S'pure_variational_first_proposal.py'
p1010
asS'vb_initialization'
p1011
S'package_default'
p1012
sS'vb_initial_K'
p1013
I10
sS'vb_rel_tol'
p1014
F1e-10
sS'N_adapt'
p1015
I500
sS'N_burn_in'
p1016
I1000
sS'N_MCMC'
p1017
I20000
sS'N_perp_ess'
p1018
I10000
sS'ess'
p1019
g17
(g19
S'Bu\xd4@\xcd\x0c\xc9?'
tRp1020
sS'perplexity'
p1021
g17
(g19
S'\xe4\xa7\x84g\xf56\xcf?'
tRp1022
sS'vb_converge_step'
p1023
NsS'vb_abs_tol'
p1024
F1.0000000000000001e-05
sS'k'
I10
sS'N_thin'
p1025
I100
sa(dp1026
S'N_max_vb'
p1027
I100
sS'dim'
p1028
I10
sS'random_seed'
p1029
I4072927846991490463
sS'final_number_of_components'
p1030
I7
sS'sys.argv'
p1031
(lp1032
S'pure_variational_first_proposal.py'
p1033
asS'vb_initialization'
p1034
S'package_default'
p1035
sS'vb_initial_K'
p1036
I10
sS'vb_rel_tol'
p1037
F1e-10
sS'N_adapt'
p1038
I500
sS'N_burn_in'
p1039
I1000
sS'N_MCMC'
p1040
I20000
sS'N_perp_ess'
p1041
I10000
sS'vb_converge_step'
p1042
NsS'perplexity'
p1043
g17
(g19
S'\x0e\xdfV\xa4\x0b\x17\xc0?'
tRp1044
sS'ess'
p1045
g17
(g19
S'\x0c\xbd;\xa6\xc3\xf7\xb7?'
tRp1046
sS'vb_abs_tol'
p1047
F1.0000000000000001e-05
sS'k'
I10
sS'N_thin'
p1048
I100
sa(dp1049
S'N_max_vb'
p1050
I100
sS'dim'
p1051
I10
sS'random_seed'
p1052
I2180453789014802572
sS'final_number_of_components'
p1053
I6
sS'sys.argv'
p1054
(lp1055
S'pure_variational_first_proposal.py'
p1056
asS'vb_initialization'
p1057
S'package_default'
p1058
sS'vb_initial_K'
p1059
I10
sS'vb_rel_tol'
p1060
F1e-10
sS'N_adapt'
p1061
I500
sS'N_burn_in'
p1062
I1000
sS'N_MCMC'
p1063
I20000
sS'N_perp_ess'
p1064
I10000
sS'ess'
p1065
g17
(g19
S'\xdcR\x9f)\xa7\xb9\xc0?'
tRp1066
sS'perplexity'
p1067
g17
(g19
S'$4\x00v\xdc\x8e\xc6?'
tRp1068
sS'vb_converge_step'
p1069
NsS'vb_abs_tol'
p1070
F1.0000000000000001e-05
sS'k'
I10
sS'N_thin'
p1071
I100
sa(dp1072
S'N_max_vb'
p1073
I100
sS'dim'
p1074
I10
sS'random_seed'
p1075
I2054405476585528668
sS'final_number_of_components'
p1076
I5
sS'sys.argv'
p1077
(lp1078
S'pure_variational_first_proposal.py'
p1079
asS'vb_initialization'
p1080
S'package_default'
p1081
sS'vb_initial_K'
p1082
I10
sS'vb_rel_tol'
p1083
F1e-10
sS'N_adapt'
p1084
I500
sS'N_burn_in'
p1085
I1000
sS'N_MCMC'
p1086
I20000
sS'N_perp_ess'
p1087
I10000
sS'vb_converge_step'
p1088
NsS'perplexity'
p1089
g17
(g19
S'2+\xa5\xf4l0\xc7?'
tRp1090
sS'ess'
p1091
g17
(g19
S"'\xba\x17\x8f\xe4\xf6\xc0?"
tRp1092
sS'vb_abs_tol'
p1093
F1.0000000000000001e-05
sS'k'
I10
sS'N_thin'
p1094
I100
sa(dp1095
S'N_max_vb'
p1096
I1000
sS'dim'
p1097
I10
sS'random_seed'
p1098
I3304017075245099355
sS'final_number_of_components'
p1099
I5
sS'sys.argv'
p1100
(lp1101
S'pure_variational_first_proposal.py'
p1102
asS'vb_initialization'
p1103
S'package_default'
p1104
sS'vb_initial_K'
p1105
I10
sS'vb_rel_tol'
p1106
F1e-10
sS'N_adapt'
p1107
I500
sS'N_burn_in'
p1108
I1000
sS'N_MCMC'
p1109
I20000
sS'N_perp_ess'
p1110
I10000
sS'ess'
p1111
g17
(g19
S'\xe7x\xf7]\x89\x8b\xbd?'
tRp1112
sS'perplexity'
p1113
g17
(g19
S'\x17\xb3\x95A\xa1\xc4\xc2?'
tRp1114
sS'vb_converge_step'
p1115
I251
sS'vb_abs_tol'
p1116
F1.0000000000000001e-05
sS'k'
I10
sS'N_thin'
p1117
I100
sa(dp1118
S'N_max_vb'
p1119
I1000
sS'dim'
p1120
I10
sS'random_seed'
p1121
I609621266909896375
sS'final_number_of_components'
p1122
I5
sS'sys.argv'
p1123
(lp1124
S'pure_variational_first_proposal.py'
p1125
asS'vb_initialization'
p1126
S'package_default'
p1127
sS'vb_initial_K'
p1128
I10
sS'vb_rel_tol'
p1129
F1e-10
sS'N_adapt'
p1130
I500
sS'N_burn_in'
p1131
I1000
sS'N_MCMC'
p1132
I20000
sS'N_perp_ess'
p1133
I10000
sS'vb_converge_step'
p1134
I210
sS'perplexity'
p1135
g17
(g19
S'\xa0\x7f\xc4\x0b\xea\x04\xc4?'
tRp1136
sS'ess'
p1137
g17
(g19
S'\x96Cz\x14\x9e\xae\xbe?'
tRp1138
sS'vb_abs_tol'
p1139
F1.0000000000000001e-05
sS'k'
I10
sS'N_thin'
p1140
I100
sa(dp1141
S'N_max_vb'
p1142
I1000
sS'dim'
p1143
I10
sS'random_seed'
p1144
I1636219517675363299
sS'final_number_of_components'
p1145
I2
sS'sys.argv'
p1146
(lp1147
S'pure_variational_first_proposal.py'
p1148
asS'vb_initialization'
p1149
S'package_default'
p1150
sS'vb_initial_K'
p1151
I10
sS'vb_rel_tol'
p1152
F1e-10
sS'N_adapt'
p1153
I500
sS'N_burn_in'
p1154
I1000
sS'N_MCMC'
p1155
I20000
sS'N_perp_ess'
p1156
I10000
sS'ess'
p1157
g17
(g19
S'\xae\xfa\xc74\xba\xb7\xd1?'
tRp1158
sS'perplexity'
p1159
g17
(g19
S'\xbd\xd34\x86>,\xd5?'
tRp1160
sS'vb_converge_step'
p1161
I269
sS'vb_abs_tol'
p1162
F1.0000000000000001e-05
sS'k'
I10
sS'N_thin'
p1163
I100
sa(dp1164
S'N_max_vb'
p1165
I1000
sS'dim'
p1166
I10
sS'random_seed'
p1167
I2528841891307931798
sS'final_number_of_components'
p1168
I4
sS'sys.argv'
p1169
(lp1170
S'pure_variational_first_proposal.py'
p1171
asS'vb_initialization'
p1172
S'package_default'
p1173
sS'vb_initial_K'
p1174
I10
sS'vb_rel_tol'
p1175
F1e-10
sS'N_adapt'
p1176
I500
sS'N_burn_in'
p1177
I1000
sS'N_MCMC'
p1178
I20000
sS'N_perp_ess'
p1179
I10000
sS'vb_converge_step'
p1180
I154
sS'perplexity'
p1181
g17
(g19
S'~/5)2\x11\xc8?'
tRp1182
sS'ess'
p1183
g17
(g19
S'\xa2\x9a\xdaB\x99$\xc3?'
tRp1184
sS'vb_abs_tol'
p1185
F1.0000000000000001e-05
sS'k'
I10
sS'N_thin'
p1186
I100
sa(dp1187
S'N_max_vb'
p1188
I1000
sS'dim'
p1189
I10
sS'random_seed'
p1190
I457583836509837134
sS'final_number_of_components'
p1191
I3
sS'sys.argv'
p1192
(lp1193
S'pure_variational_first_proposal.py'
p1194
asS'vb_initialization'
p1195
S'package_default'
p1196
sS'vb_initial_K'
p1197
I10
sS'vb_rel_tol'
p1198
F1e-10
sS'N_adapt'
p1199
I500
sS'N_burn_in'
p1200
I1000
sS'N_MCMC'
p1201
I20000
sS'N_perp_ess'
p1202
I10000
sS'ess'
p1203
g17
(g19
S'\x8a\xe1=\xd6>j\xc8?'
tRp1204
sS'perplexity'
p1205
g17
(g19
S'_\xdd\xeb\x85\x1f\x9e\xcd?'
tRp1206
sS'vb_converge_step'
p1207
I158
sS'vb_abs_tol'
p1208
F1.0000000000000001e-05
sS'k'
I10
sS'N_thin'
p1209
I100
sa(dp1210
S'N_max_vb'
p1211
I1000
sS'dim'
p1212
I10
sS'random_seed'
p1213
I446225479017519159
sS'final_number_of_components'
p1214
I3
sS'sys.argv'
p1215
(lp1216
S'pure_variational_first_proposal.py'
p1217
asS'vb_initialization'
p1218
S'package_default'
p1219
sS'vb_initial_K'
p1220
I10
sS'vb_rel_tol'
p1221
F1e-10
sS'N_adapt'
p1222
I500
sS'N_burn_in'
p1223
I1000
sS'N_MCMC'
p1224
I20000
sS'N_perp_ess'
p1225
I10000
sS'vb_converge_step'
p1226
I248
sS'perplexity'
p1227
g17
(g19
S'tQef0G\xce?'
tRp1228
sS'ess'
p1229
g17
(g19
S'\x93Q\x875w\xcb\xc8?'
tRp1230
sS'vb_abs_tol'
p1231
F1.0000000000000001e-05
sS'k'
I10
sS'N_thin'
p1232
I100
sa(dp1233
S'N_max_vb'
p1234
I1000
sS'dim'
p1235
I10
sS'random_seed'
p1236
I840002867995251270
sS'final_number_of_components'
p1237
I3
sS'sys.argv'
p1238
(lp1239
S'pure_variational_first_proposal.py'
p1240
asS'vb_initialization'
p1241
S'package_default'
p1242
sS'vb_initial_K'
p1243
I10
sS'vb_rel_tol'
p1244
F1e-10
sS'N_adapt'
p1245
I500
sS'N_burn_in'
p1246
I1000
sS'N_MCMC'
p1247
I20000
sS'N_perp_ess'
p1248
I10000
sS'ess'
p1249
g17
(g19
S'\xa6~\x8b\xa8\xf6\xf5\xc7?'
tRp1250
sS'perplexity'
p1251
g17
(g19
S'\xc1\x9c\xb3o@5\xcd?'
tRp1252
sS'vb_converge_step'
p1253
I274
sS'vb_abs_tol'
p1254
F1.0000000000000001e-05
sS'k'
I10
sS'N_thin'
p1255
I100
sa(dp1256
S'N_max_vb'
p1257
I1000
sS'dim'
p1258
I10
sS'random_seed'
p1259
I2493511928089468459
sS'final_number_of_components'
p1260
I5
sS'sys.argv'
p1261
(lp1262
S'pure_variational_first_proposal.py'
p1263
asS'vb_initialization'
p1264
S'package_default'
p1265
sS'vb_initial_K'
p1266
I10
sS'vb_rel_tol'
p1267
F1e-10
sS'N_adapt'
p1268
I500
sS'N_burn_in'
p1269
I1000
sS'N_MCMC'
p1270
I20000
sS'N_perp_ess'
p1271
I10000
sS'vb_converge_step'
p1272
I165
sS'perplexity'
p1273
g17
(g19
S'\x8e\xc4\xb4C\xda\x0b\xc4?'
tRp1274
sS'ess'
p1275
g17
(g19
S'\xcf\xfdy\xfb\x83\xf3\xbe?'
tRp1276
sS'vb_abs_tol'
p1277
F1.0000000000000001e-05
sS'k'
I10
sS'N_thin'
p1278
I100
sa(dp1279
S'N_max_vb'
p1280
I1000
sS'dim'
p1281
I10
sS'random_seed'
p1282
I944629543474703822
sS'final_number_of_components'
p1283
I4
sS'sys.argv'
p1284
(lp1285
S'pure_variational_first_proposal.py'
p1286
asS'vb_initialization'
p1287
S'package_default'
p1288
sS'vb_initial_K'
p1289
I10
sS'vb_rel_tol'
p1290
F1e-10
sS'N_adapt'
p1291
I500
sS'N_burn_in'
p1292
I1000
sS'N_MCMC'
p1293
I20000
sS'N_perp_ess'
p1294
I10000
sS'ess'
p1295
g17
(g19
S'\xd9\xc2z\xd4\xbe\x1f\xc3?'
tRp1296
sS'perplexity'
p1297
g17
(g19
S'\x96IG\x19r \xc8?'
tRp1298
sS'vb_converge_step'
p1299
I186
sS'vb_abs_tol'
p1300
F1.0000000000000001e-05
sS'k'
I10
sS'N_thin'
p1301
I100
sa(dp1302
S'N_max_vb'
p1303
I1000
sS'dim'
p1304
I10
sS'random_seed'
p1305
I748487473012917305
sS'final_number_of_components'
p1306
I4
sS'sys.argv'
p1307
(lp1308
S'pure_variational_first_proposal.py'
p1309
asS'vb_initialization'
p1310
S'package_default'
p1311
sS'vb_initial_K'
p1312
I10
sS'vb_rel_tol'
p1313
F1e-10
sS'N_adapt'
p1314
I500
sS'N_burn_in'
p1315
I1000
sS'N_MCMC'
p1316
I20000
sS'N_perp_ess'
p1317
I10000
sS'vb_converge_step'
p1318
I193
sS'perplexity'
p1319
g17
(g19
S't\x96>7\xf0%\xc7?'
tRp1320
sS'ess'
p1321
g17
(g19
S"(\xe3\x85d'q\xc2?"
tRp1322
sS'vb_abs_tol'
p1323
F1.0000000000000001e-05
sS'k'
I10
sS'N_thin'
p1324
I100
sa(dp1325
S'N_max_vb'
p1326
I1000
sS'dim'
p1327
I10
sS'random_seed'
p1328
I2166003055313078731
sS'final_number_of_components'
p1329
I2
sS'sys.argv'
p1330
(lp1331
S'pure_variational_first_proposal.py'
p1332
asS'vb_initialization'
p1333
S'package_default'
p1334
sS'vb_initial_K'
p1335
I2
sS'vb_rel_tol'
p1336
F1e-10
sS'N_adapt'
p1337
I500
sS'N_burn_in'
p1338
I1000
sS'N_MCMC'
p1339
I20000
sS'N_perp_ess'
p1340
I10000
sS'ess'
p1341
g17
(g19
S'9\xd9y\xdb\xda\x13\xd2?'
tRp1342
sS'perplexity'
p1343
g17
(g19
S')\xddL\r\xc8h\xd5?'
tRp1344
sS'vb_converge_step'
p1345
I4
sS'vb_abs_tol'
p1346
F1.0000000000000001e-05
sS'k'
I10
sS'N_thin'
p1347
I100
sa(dp1348
S'N_max_vb'
p1349
I1000
sS'dim'
p1350
I10
sS'random_seed'
p1351
I3375045248589542676
sS'final_number_of_components'
p1352
I2
sS'sys.argv'
p1353
(lp1354
S'pure_variational_first_proposal.py'
p1355
asS'vb_initialization'
p1356
S'package_default'
p1357
sS'vb_initial_K'
p1358
I2
sS'vb_rel_tol'
p1359
F1e-10
sS'N_adapt'
p1360
I500
sS'N_burn_in'
p1361
I1000
sS'N_MCMC'
p1362
I20000
sS'N_perp_ess'
p1363
I10000
sS'vb_converge_step'
p1364
I4
sS'perplexity'
p1365
g17
(g19
S'\xe2\xb8\xc8T\xefS\xd5?'
tRp1366
sS'ess'
p1367
g17
(g19
S'|R\xd9tE\xed\xd1?'
tRp1368
sS'vb_abs_tol'
p1369
F1.0000000000000001e-05
sS'k'
I10
sS'N_thin'
p1370
I100
sa(dp1371
S'N_max_vb'
p1372
I1000
sS'dim'
p1373
I10
sS'random_seed'
p1374
I673458601625726028
sS'final_number_of_components'
p1375
I2
sS'sys.argv'
p1376
(lp1377
S'pure_variational_first_proposal.py'
p1378
asS'vb_initialization'
p1379
S'package_default'
p1380
sS'vb_initial_K'
p1381
I2
sS'vb_rel_tol'
p1382
F1e-10
sS'N_adapt'
p1383
I500
sS'N_burn_in'
p1384
I1000
sS'N_MCMC'
p1385
I20000
sS'N_perp_ess'
p1386
I10000
sS'ess'
p1387
g17
(g19
S'\xf4\xcf\xde\xa6x\x82\xd1?'
tRp1388
sS'perplexity'
p1389
g17
(g19
S'\x03e^z\\\xcb\xd4?'
tRp1390
sS'vb_converge_step'
p1391
I4
sS'vb_abs_tol'
p1392
F1.0000000000000001e-05
sS'k'
I10
sS'N_thin'
p1393
I100
sa(dp1394
S'N_max_vb'
p1395
I1000
sS'dim'
p1396
I10
sS'random_seed'
p1397
I2200400857113300207
sS'final_number_of_components'
p1398
I2
sS'sys.argv'
p1399
(lp1400
S'pure_variational_first_proposal.py'
p1401
asS'vb_initialization'
p1402
S'package_default'
p1403
sS'vb_initial_K'
p1404
I2
sS'vb_rel_tol'
p1405
F1e-10
sS'N_adapt'
p1406
I500
sS'N_burn_in'
p1407
I1000
sS'N_MCMC'
p1408
I20000
sS'N_perp_ess'
p1409
I10000
sS'vb_converge_step'
p1410
I5
sS'perplexity'
p1411
g17
(g19
S'9\x7fd%\xf4\xec\xd4?'
tRp1412
sS'ess'
p1413
g17
(g19
S'\x0f\x88\x9f\xfc\xec\xa6\xd1?'
tRp1414
sS'vb_abs_tol'
p1415
F1.0000000000000001e-05
sS'k'
I10
sS'N_thin'
p1416
I100
sa(dp1417
S'N_max_vb'
p1418
I1000
sS'dim'
p1419
I10
sS'random_seed'
p1420
I3961355395919793934
sS'final_number_of_components'
p1421
I2
sS'sys.argv'
p1422
(lp1423
S'pure_variational_first_proposal.py'
p1424
asS'vb_initialization'
p1425
S'package_default'
p1426
sS'vb_initial_K'
p1427
I2
sS'vb_rel_tol'
p1428
F1e-10
sS'N_adapt'
p1429
I500
sS'N_burn_in'
p1430
I1000
sS'N_MCMC'
p1431
I20000
sS'N_perp_ess'
p1432
I10000
sS'ess'
p1433
g17
(g19
S'\xfa\xcc\xc2o=\r\xd1?'
tRp1434
sS'perplexity'
p1435
g17
(g19
S'2\xd1\x1f\xa7<\xad\xd4?'
tRp1436
sS'vb_converge_step'
p1437
I5
sS'vb_abs_tol'
p1438
F1.0000000000000001e-05
sS'k'
I10
sS'N_thin'
p1439
I100
sa(dp1440
S'N_max_vb'
p1441
I1000
sS'dim'
p1442
I10
sS'random_seed'
p1443
I1164456377055188443
sS'final_number_of_components'
p1444
I2
sS'sys.argv'
p1445
(lp1446
S'pure_variational_first_proposal.py'
p1447
asS'vb_initialization'
p1448
S'package_default'
p1449
sS'vb_initial_K'
p1450
I2
sS'vb_rel_tol'
p1451
F1e-10
sS'N_adapt'
p1452
I500
sS'N_burn_in'
p1453
I1000
sS'N_MCMC'
p1454
I20000
sS'N_perp_ess'
p1455
I10000
sS'vb_converge_step'
p1456
I4
sS'perplexity'
p1457
g17
(g19
S'\xbd\x14N\xe1fz\xd5?'
tRp1458
sS'ess'
p1459
g17
(g19
S'F\n\xc5S\x8e\x1a\xd2?'
tRp1460
sS'vb_abs_tol'
p1461
F1.0000000000000001e-05
sS'k'
I10
sS'N_thin'
p1462
I100
sa(dp1463
S'N_max_vb'
p1464
I1000
sS'dim'
p1465
I10
sS'random_seed'
p1466
I3776682699883938743
sS'final_number_of_components'
p1467
I2
sS'sys.argv'
p1468
(lp1469
S'pure_variational_first_proposal.py'
p1470
asS'vb_initialization'
p1471
S'package_default'
p1472
sS'vb_initial_K'
p1473
I2
sS'vb_rel_tol'
p1474
F1e-10
sS'N_adapt'
p1475
I500
sS'N_burn_in'
p1476
I1000
sS'N_MCMC'
p1477
I20000
sS'N_perp_ess'
p1478
I10000
sS'ess'
p1479
g17
(g19
S'h\xdf`\xba\x14\x00\xd2?'
tRp1480
sS'perplexity'
p1481
g17
(g19
S'B\x97\xe4\xba\xd3F\xd5?'
tRp1482
sS'vb_converge_step'
p1483
I4
sS'vb_abs_tol'
p1484
F1.0000000000000001e-05
sS'k'
I10
sS'N_thin'
p1485
I100
sa(dp1486
S'N_max_vb'
p1487
I1000
sS'dim'
p1488
I10
sS'random_seed'
p1489
I1840391018182911778
sS'final_number_of_components'
p1490
I2
sS'sys.argv'
p1491
(lp1492
S'pure_variational_first_proposal.py'
p1493
asS'vb_initialization'
p1494
S'package_default'
p1495
sS'vb_initial_K'
p1496
I2
sS'vb_rel_tol'
p1497
F1e-10
sS'N_adapt'
p1498
I500
sS'N_burn_in'
p1499
I1000
sS'N_MCMC'
p1500
I20000
sS'N_perp_ess'
p1501
I10000
sS'vb_converge_step'
p1502
I4
sS'perplexity'
p1503
g17
(g19
S'n\xa7\xa6\rT\x8f\xd5?'
tRp1504
sS'ess'
p1505
g17
(g19
S'\x9d\xdd\xbd*V2\xd2?'
tRp1506
sS'vb_abs_tol'
p1507
F1.0000000000000001e-05
sS'k'
I10
sS'N_thin'
p1508
I100
sa(dp1509
S'N_max_vb'
p1510
I1000
sS'dim'
p1511
I10
sS'random_seed'
p1512
I2870454809752247992
sS'final_number_of_components'
p1513
I2
sS'sys.argv'
p1514
(lp1515
S'pure_variational_first_proposal.py'
p1516
asS'vb_initialization'
p1517
S'package_default'
p1518
sS'vb_initial_K'
p1519
I2
sS'vb_rel_tol'
p1520
F1e-10
sS'N_adapt'
p1521
I500
sS'N_burn_in'
p1522
I1000
sS'N_MCMC'
p1523
I20000
sS'N_perp_ess'
p1524
I10000
sS'ess'
p1525
g17
(g19
S'\x04#t\xc3\rC\xd2?'
tRp1526
sS'perplexity'
p1527
g17
(g19
S'[\x839\xd9\x1f\x9b\xd5?'
tRp1528
sS'vb_converge_step'
p1529
I5
sS'vb_abs_tol'
p1530
F1.0000000000000001e-05
sS'k'
I10
sS'N_thin'
p1531
I100
sa(dp1532
S'N_max_vb'
p1533
I1000
sS'dim'
p1534
I10
sS'random_seed'
p1535
I3959579491563116513
sS'final_number_of_components'
p1536
I2
sS'sys.argv'
p1537
(lp1538
S'pure_variational_first_proposal.py'
p1539
asS'vb_initialization'
p1540
S'package_default'
p1541
sS'vb_initial_K'
p1542
I2
sS'vb_rel_tol'
p1543
F1e-10
sS'N_adapt'
p1544
I500
sS'N_burn_in'
p1545
I1000
sS'N_MCMC'
p1546
I20000
sS'N_perp_ess'
p1547
I10000
sS'vb_converge_step'
p1548
I4
sS'perplexity'
p1549
g17
(g19
S'\x8cI~\xd6]C\xd5?'
tRp1550
sS'ess'
p1551
g17
(g19
S'\t\xd3\xd9"\xa6\xe5\xd1?'
tRp1552
sS'vb_abs_tol'
p1553
F1.0000000000000001e-05
sS'k'
I10
sS'N_thin'
p1554
I100
sa(dp1555
S'kill_in_hc'
p1556
I01
sS'dim'
p1557
I10
sS'random_seed'
p1558
I3359392397622109329
sS'hc_converge_step'
p1559
I18
sS'final_number_of_components'
p1560
I30
sS'sys.argv'
p1561
(lp1562
S'original_first_proposal.py'
p1563
asS'k'
I10
sS'L'
I100
sS'N_perp_ess'
p1564
I10000
sS'N_adapt'
p1565
I500
sS'N_burn_in'
p1566
I1000
sS'critical_r'
p1567
F2
sS'N_MCMC'
p1568
I20000
sS'ess'
p1569
g17
(g19
S'\x8c\x83\xd6\xc7\xdc\xa0\xd1?'
tRp1570
sS'perplexity'
p1571
g17
(g19
S'\xd5\x83\xd6\xed5/\xd5?'
tRp1572
sS'number_of_chain_groups'
p1573
I2
sS'K_g'
p1574
I15
sa(dp1575
S'kill_in_hc'
p1576
I01
sS'dim'
p1577
I10
sS'random_seed'
p1578
I1012303147843605094
sS'hc_converge_step'
p1579
I17
sS'final_number_of_components'
p1580
I30
sS'sys.argv'
p1581
(lp1582
S'original_first_proposal.py'
p1583
asS'k'
I10
sS'number_of_chain_groups'
p1584
I2
sS'L'
I100
sS'N_perp_ess'
p1585
I10000
sS'N_adapt'
p1586
I500
sS'N_burn_in'
p1587
I1000
sS'critical_r'
p1588
F2
sS'N_MCMC'
p1589
I20000
sS'perplexity'
p1590
g17
(g19
S'\x80\xb7\x8e\t\xf7\xb5\xd5?'
tRp1591
sS'ess'
p1592
g17
(g19
S'H\xb5C\xd2\x8dI\xd2?'
tRp1593
sS'K_g'
p1594
I15
sa(dp1595
S'kill_in_hc'
p1596
I01
sS'dim'
p1597
I10
sS'random_seed'
p1598
I971059997092037617
sS'hc_converge_step'
p1599
I14
sS'final_number_of_components'
p1600
I30
sS'sys.argv'
p1601
(lp1602
S'original_first_proposal.py'
p1603
asS'k'
I10
sS'L'
I100
sS'N_perp_ess'
p1604
I10000
sS'N_adapt'
p1605
I500
sS'N_burn_in'
p1606
I1000
sS'critical_r'
p1607
F2
sS'N_MCMC'
p1608
I20000
sS'ess'
p1609
g17
(g19
S'\xc4O\x90\xc4\xa2\x9c\xd1?'
tRp1610
sS'perplexity'
p1611
g17
(g19
S'Np\xe2|{*\xd5?'
tRp1612
sS'number_of_chain_groups'
p1613
I2
sS'K_g'
p1614
I15
sa(dp1615
S'kill_in_hc'
p1616
I01
sS'dim'
p1617
I10
sS'random_seed'
p1618
I1778836660919716431
sS'hc_converge_step'
p1619
I19
sS'final_number_of_components'
p1620
I30
sS'sys.argv'
p1621
(lp1622
S'original_first_proposal.py'
p1623
asS'k'
I10
sS'number_of_chain_groups'
p1624
I2
sS'L'
I100
sS'N_perp_ess'
p1625
I10000
sS'N_adapt'
p1626
I500
sS'N_burn_in'
p1627
I1000
sS'critical_r'
p1628
F2
sS'N_MCMC'
p1629
I20000
sS'perplexity'
p1630
g17
(g19
S'\xfcb\x83\xa7\xb9\x06\xd4?'
tRp1631
sS'ess'
p1632
g17
(g19
S'}X\xa5\xd6\xc31\xd0?'
tRp1633
sS'K_g'
p1634
I15
sa(dp1635
S'kill_in_hc'
p1636
I01
sS'dim'
p1637
I10
sS'random_seed'
p1638
I2946513097953034851
sS'hc_converge_step'
p1639
I24
sS'final_number_of_components'
p1640
I30
sS'sys.argv'
p1641
(lp1642
S'original_first_proposal.py'
p1643
asS'k'
I10
sS'L'
I100
sS'N_perp_ess'
p1644
I10000
sS'N_adapt'
p1645
I500
sS'N_burn_in'
p1646
I1000
sS'critical_r'
p1647
F2
sS'N_MCMC'
p1648
I20000
sS'ess'
p1649
g17
(g19
S'\xdc\xf3p+\\\xda\xd1?'
tRp1650
sS'perplexity'
p1651
g17
(g19
S'\x8c7k\xaf u\xd5?'
tRp1652
sS'number_of_chain_groups'
p1653
I2
sS'K_g'
p1654
I15
sa(dp1655
S'kill_in_hc'
p1656
I01
sS'dim'
p1657
I10
sS'random_seed'
p1658
I3569356834921758664
sS'hc_converge_step'
p1659
I17
sS'final_number_of_components'
p1660
I30
sS'sys.argv'
p1661
(lp1662
S'original_first_proposal.py'
p1663
asS'k'
I10
sS'number_of_chain_groups'
p1664
I2
sS'L'
I100
sS'N_perp_ess'
p1665
I10000
sS'N_adapt'
p1666
I500
sS'N_burn_in'
p1667
I1000
sS'critical_r'
p1668
F2
sS'N_MCMC'
p1669
I20000
sS'perplexity'
p1670
g17
(g19
S'D1z\xca\xb8\x1e\xd5?'
tRp1671
sS'ess'
p1672
g17
(g19
S'\xf1y\xeb/\xe9\xc6\xd1?'
tRp1673
sS'K_g'
p1674
I15
sa(dp1675
S'kill_in_hc'
p1676
I01
sS'dim'
p1677
I10
sS'random_seed'
p1678
I2670862030109695060
sS'hc_converge_step'
p1679
I17
sS'final_number_of_components'
p1680
I30
sS'sys.argv'
p1681
(lp1682
S'original_first_proposal.py'
p1683
asS'k'
I10
sS'L'
I100
sS'N_perp_ess'
p1684
I10000
sS'N_adapt'
p1685
I500
sS'N_burn_in'
p1686
I1000
sS'critical_r'
p1687
F2
sS'N_MCMC'
p1688
I20000
sS'ess'
p1689
g17
(g19
S'\xea\x1c\x16\x18\xaaO\xd2?'
tRp1690
sS'perplexity'
p1691
g17
(g19
S'\xbf\xc8\xea\xa0!\xcd\xd5?'
tRp1692
sS'number_of_chain_groups'
p1693
I2
sS'K_g'
p1694
I15
sa(dp1695
S'kill_in_hc'
p1696
I01
sS'dim'
p1697
I10
sS'random_seed'
p1698
I208312754593913700
sS'hc_converge_step'
p1699
I14
sS'final_number_of_components'
p1700
I30
sS'sys.argv'
p1701
(lp1702
S'original_first_proposal.py'
p1703
asS'k'
I10
sS'number_of_chain_groups'
p1704
I2
sS'L'
I100
sS'N_perp_ess'
p1705
I10000
sS'N_adapt'
p1706
I500
sS'N_burn_in'
p1707
I1000
sS'critical_r'
p1708
F2
sS'N_MCMC'
p1709
I20000
sS'perplexity'
p1710
g17
(g19
S'*ar\x0b\xc6v\xd5?'
tRp1711
sS'ess'
p1712
g17
(g19
S']P\xa9\xc7\xbf\x1d\xd2?'
tRp1713
sS'K_g'
p1714
I15
sa(dp1715
S'kill_in_hc'
p1716
I01
sS'dim'
p1717
I10
sS'random_seed'
p1718
I813823475889241862
sS'hc_converge_step'
p1719
I19
sS'final_number_of_components'
p1720
I30
sS'sys.argv'
p1721
(lp1722
S'original_first_proposal.py'
p1723
asS'k'
I10
sS'L'
I100
sS'N_perp_ess'
p1724
I10000
sS'N_adapt'
p1725
I500
sS'N_burn_in'
p1726
I1000
sS'critical_r'
p1727
F2
sS'N_MCMC'
p1728
I20000
sS'ess'
p1729
g17
(g19
S'@\xbb\x91\xab\xd7L\xd1?'
tRp1730
sS'perplexity'
p1731
g17
(g19
S'\xfa\xc7\t\x7f\x8e\x08\xd5?'
tRp1732
sS'number_of_chain_groups'
p1733
I2
sS'K_g'
p1734
I15
sa(dp1735
S'kill_in_hc'
p1736
I01
sS'dim'
p1737
I10
sS'random_seed'
p1738
I3028534723465468495
sS'hc_converge_step'
p1739
I17
sS'final_number_of_components'
p1740
I30
sS'sys.argv'
p1741
(lp1742
S'original_first_proposal.py'
p1743
asS'k'
I10
sS'number_of_chain_groups'
p1744
I2
sS'L'
I100
sS'N_perp_ess'
p1745
I10000
sS'N_adapt'
p1746
I500
sS'N_burn_in'
p1747
I1000
sS'critical_r'
p1748
F2
sS'N_MCMC'
p1749
I20000
sS'perplexity'
p1750
g17
(g19
S'\x17\x13\xc2F\x06!\xd6?'
tRp1751
sS'ess'
p1752
g17
(g19
S'\x07\x8f\xc4\x99\xf2\xae\xd2?'
tRp1753
sS'K_g'
p1754
I15
sa(dp1755
S'N_max_vb'
p1756
I1000
sS'dim'
p1757
I10
sS'random_seed'
p1758
I3833731886259624539
sS'final_number_of_components'
p1759
I2
sS'sys.argv'
p1760
(lp1761
S'pure_variational_first_proposal.py'
p1762
asS'vb_initialization'
p1763
S'package_default'
p1764
sS'vb_initial_K'
p1765
I2
sS'vb_rel_tol'
p1766
F1e-10
sS'N_adapt'
p1767
I500
sS'N_burn_in'
p1768
I1000
sS'N_MCMC'
p1769
I20000
sS'N_perp_ess'
p1770
I10000
sS'ess'
p1771
g17
(g19
S'\xd2\x14\x98\xdb\xae\xec\xd1?'
tRp1772
sS'perplexity'
p1773
g17
(g19
S'_3c\x03\xfa[\xd5?'
tRp1774
sS'vb_converge_step'
p1775
I4
sS'vb_abs_tol'
p1776
F1.0000000000000001e-05
sS'k'
I10
sS'N_thin'
p1777
I100
sa(dp1778
S'N_max_vb'
p1779
I1000
sS'dim'
p1780
I10
sS'random_seed'
p1781
I4323456894761704981
sS'final_number_of_components'
p1782
I2
sS'sys.argv'
p1783
(lp1784
S'pure_variational_first_proposal.py'
p1785
asS'vb_initialization'
p1786
S'package_default'
p1787
sS'vb_initial_K'
p1788
I2
sS'vb_rel_tol'
p1789
F1e-10
sS'N_adapt'
p1790
I500
sS'N_burn_in'
p1791
I1000
sS'N_MCMC'
p1792
I20000
sS'N_perp_ess'
p1793
I10000
sS'vb_converge_step'
p1794
I4
sS'perplexity'
p1795
g17
(g19
S'\x1e\xb2&\xe7\x15\xed\xd4?'
tRp1796
sS'ess'
p1797
g17
(g19
S'\x07\xa0`\xc4\x03\x93\xd1?'
tRp1798
sS'vb_abs_tol'
p1799
F1.0000000000000001e-05
sS'k'
I10
sS'N_thin'
p1800
I100
sa(dp1801
S'kill_in_hc'
p1802
I01
sS'vb_initial_K'
p1803
I50
sS'vb_rel_tol'
p1804
F1e-10
sS'abandon_weights'
p1805
I01
sS'perplexity'
p1806
g17
(g19
S'\x0e\x04\xa3\xa0\x8df\xc2?'
tRp1807
sS'N_thin'
p1808
I100
sS'N_max_vb'
p1809
I100
sS'ess'
p1810
g17
(g19
S'AM!\xffY\x94\xb7?'
tRp1811
sS'vb2_initialization'
p1812
S'means_only'
p1813
sS'vb_initialization'
p1814
S'package_default'
p1815
sS'number_of_components_after_hc'
p1816
I12
sS'N_burn_in'
p1817
I1000
sS'N_MCMC'
p1818
I20000
sS'vb_abs_tol'
p1819
F1.0000000000000001e-05
sS'final_number_of_components'
p1820
I11
sS'random_seed'
p1821
I1660593414656399448
sS'sys.argv'
p1822
(lp1823
S'variational_with_hierarchical_first_proposal.py'
p1824
asS'L'
I100
sS'run_second_vb'
p1825
I01
sS'N_perp_ess'
p1826
I10000
sS'vb_converge_step'
p1827
NsS'dim'
p1828
I10
sS'hc_converge_step'
p1829
I20
sS'k'
I10
sS'N_adapt'
p1830
I500
sS'number_of_components_after_vb'
p1831
I16
sS'vb2_converge_step'
p1832
Nsa(dp1833
S'kill_in_hc'
p1834
I01
sS'vb_initial_K'
p1835
I50
sS'vb_rel_tol'
p1836
F1e-10
sS'abandon_weights'
p1837
I01
sS'perplexity'
p1838
g17
(g19
S'\xfe\x193S\xf8\xbe\xc8?'
tRp1839
sS'N_thin'
p1840
I100
sS'N_max_vb'
p1841
I100
sS'ess'
p1842
g17
(g19
S'\xd7[\xb7&SK\xc0?'
tRp1843
sS'vb2_initialization'
p1844
S'means_only'
p1845
sS'vb_initialization'
p1846
S'package_default'
p1847
sS'number_of_components_after_hc'
p1848
I12
sS'N_burn_in'
p1849
I1000
sS'N_MCMC'
p1850
I20000
sS'vb_abs_tol'
p1851
F1.0000000000000001e-05
sS'final_number_of_components'
p1852
I10
sS'random_seed'
p1853
I1602247038917431111
sS'sys.argv'
p1854
(lp1855
S'variational_with_hierarchical_first_proposal.py'
p1856
asS'L'
I100
sS'run_second_vb'
p1857
I01
sS'N_perp_ess'
p1858
I10000
sS'vb_converge_step'
p1859
NsS'dim'
p1860
I10
sS'hc_converge_step'
p1861
I17
sS'k'
I10
sS'N_adapt'
p1862
I500
sS'number_of_components_after_vb'
p1863
I12
sS'vb2_converge_step'
p1864
Nsa(dp1865
S'kill_in_hc'
p1866
I01
sS'vb_initial_K'
p1867
I50
sS'vb_rel_tol'
p1868
F1e-10
sS'abandon_weights'
p1869
I01
sS'perplexity'
p1870
g17
(g19
S'\xba\xed\xac\xe87w\xce?'
tRp1871
sS'N_thin'
p1872
I100
sS'N_max_vb'
p1873
I100
sS'ess'
p1874
g17
(g19
S'5\x18D\xff/B\xc6?'
tRp1875
sS'vb2_initialization'
p1876
S'means_only'
p1877
sS'vb_initialization'
p1878
S'package_default'
p1879
sS'number_of_components_after_hc'
p1880
I9
sS'N_burn_in'
p1881
I1000
sS'N_MCMC'
p1882
I20000
sS'vb_abs_tol'
p1883
F1.0000000000000001e-05
sS'final_number_of_components'
p1884
I6
sS'random_seed'
p1885
I3678845870197392607
sS'sys.argv'
p1886
(lp1887
S'variational_with_hierarchical_first_proposal.py'
p1888
asS'L'
I100
sS'run_second_vb'
p1889
I01
sS'N_perp_ess'
p1890
I10000
sS'vb_converge_step'
p1891
NsS'dim'
p1892
I10
sS'hc_converge_step'
p1893
I20
sS'k'
I10
sS'N_adapt'
p1894
I500
sS'number_of_components_after_vb'
p1895
I13
sS'vb2_converge_step'
p1896
Nsa(dp1897
S'kill_in_hc'
p1898
I01
sS'vb_initial_K'
p1899
I50
sS'vb_rel_tol'
p1900
F1e-10
sS'abandon_weights'
p1901
I01
sS'perplexity'
p1902
g17
(g19
S'I\xa1\\\xf4Z\xa0\xc4?'
tRp1903
sS'N_thin'
p1904
I100
sS'N_max_vb'
p1905
I100
sS'ess'
p1906
g17
(g19
S'\\\x8c\x84\xf2v!\xc0?'
tRp1907
sS'vb2_initialization'
p1908
S'means_only'
p1909
sS'vb_initialization'
p1910
S'package_default'
p1911
sS'number_of_components_after_hc'
p1912
I6
sS'N_burn_in'
p1913
I1000
sS'N_MCMC'
p1914
I20000
sS'vb_abs_tol'
p1915
F1.0000000000000001e-05
sS'final_number_of_components'
p1916
I5
sS'random_seed'
p1917
I2204844281790194356
sS'sys.argv'
p1918
(lp1919
S'variational_with_hierarchical_first_proposal.py'
p1920
asS'L'
I100
sS'run_second_vb'
p1921
I01
sS'N_perp_ess'
p1922
I10000
sS'vb_converge_step'
p1923
NsS'dim'
p1924
I10
sS'hc_converge_step'
p1925
I12
sS'k'
I10
sS'N_adapt'
p1926
I500
sS'number_of_components_after_vb'
p1927
I7
sS'vb2_converge_step'
p1928
Nsa(dp1929
S'kill_in_hc'
p1930
I01
sS'vb_initial_K'
p1931
I50
sS'vb_rel_tol'
p1932
F1e-10
sS'abandon_weights'
p1933
I01
sS'perplexity'
p1934
g17
(g19
S'\x9c\xf2\xd5\x8fix\xc3?'
tRp1935
sS'N_thin'
p1936
I100
sS'N_max_vb'
p1937
I100
sS'ess'
p1938
g17
(g19
S'\xc9}\xa2\x167D\xb7?'
tRp1939
sS'vb2_initialization'
p1940
S'means_only'
p1941
sS'vb_initialization'
p1942
S'package_default'
p1943
sS'number_of_components_after_hc'
p1944
I16
sS'N_burn_in'
p1945
I1000
sS'N_MCMC'
p1946
I20000
sS'vb_abs_tol'
p1947
F1.0000000000000001e-05
sS'final_number_of_components'
p1948
I14
sS'random_seed'
p1949
I2760346091152943135
sS'sys.argv'
p1950
(lp1951
S'variational_with_hierarchical_first_proposal.py'
p1952
asS'L'
I100
sS'run_second_vb'
p1953
I01
sS'N_perp_ess'
p1954
I10000
sS'vb_converge_step'
p1955
NsS'dim'
p1956
I10
sS'hc_converge_step'
p1957
I18
sS'k'
I10
sS'N_adapt'
p1958
I500
sS'number_of_components_after_vb'
p1959
I16
sS'vb2_converge_step'
p1960
Nsa(dp1961
S'kill_in_hc'
p1962
I01
sS'vb_rel_tol'
p1963
F1e-10
sS'abandon_weights'
p1964
I01
sS'perplexity'
p1965
g17
(g19
S'\xe7\xf5t\xf7\xfa\xd4\xa6?'
tRp1966
sS'N_thin'
p1967
I100
sS'N_max_vb'
p1968
I100
sS'ess'
p1969
g17
(g19
S'\x02\x87\x19\x80)\t\x82?'
tRp1970
sS'vb_initialization'
p1971
S'means_only'
p1972
sS'number_of_components_after_hc'
p1973
I131
sS'N_burn_in'
p1974
I1000
sS'N_MCMC'
p1975
I20000
sS'vb_abs_tol'
p1976
F1.0000000000000001e-05
sS'final_number_of_components'
p1977
I131
sS'random_seed'
p1978
I4290558788714210571
sS'sys.argv'
p1979
(lp1980
S'variational_with_hierarchical_first_proposal.py'
p1981
asS'L'
I100
sS'run_second_vb'
p1982
I00
sS'N_perp_ess'
p1983
I10000
sS'vb_converge_step'
p1984
I89
sS'dim'
p1985
I10
sS'hc_converge_step'
p1986
I5
sS'k'
I10
sS'N_adapt'
p1987
I500
sS'number_of_components_after_vb'
p1988
I148
sS'vb2_converge_step'
p1989
Nsa(dp1990
S'kill_in_hc'
p1991
I01
sS'vb_rel_tol'
p1992
F1e-10
sS'abandon_weights'
p1993
I01
sS'perplexity'
p1994
g17
(g19
S'\x19D*[\x8b\xd9\xd0?'
tRp1995
sS'N_thin'
p1996
I100
sS'N_max_vb'
p1997
I100
sS'ess'
p1998
g17
(g19
S'a\x1c\xb8\x1e5d\xc9?'
tRp1999
sS'vb_initialization'
p2000
S'means_only'
p2001
sS'number_of_components_after_hc'
p2002
I269
sS'N_burn_in'
p2003
I1000
sS'N_MCMC'
p2004
I20000
sS'vb_abs_tol'
p2005
F1.0000000000000001e-05
sS'final_number_of_components'
p2006
I269
sS'random_seed'
p2007
I3203547105901246094
sS'sys.argv'
p2008
(lp2009
S'variational_with_hierarchical_first_proposal.py'
p2010
asS'L'
I100
sS'run_second_vb'
p2011
I00
sS'N_perp_ess'
p2012
I10000
sS'vb_converge_step'
p2013
I72
sS'dim'
p2014
I10
sS'hc_converge_step'
p2015
I7
sS'k'
I10
sS'N_adapt'
p2016
I500
sS'number_of_components_after_vb'
p2017
I305
sS'vb2_converge_step'
p2018
Nsa(dp2019
S'kill_in_hc'
p2020
I01
sS'vb_rel_tol'
p2021
F1e-10
sS'abandon_weights'
p2022
I01
sS'perplexity'
p2023
g17
(g19
S'}i)\x9b]\xc8\xb2?'
tRp2024
sS'N_thin'
p2025
I100
sS'N_max_vb'
p2026
I100
sS'ess'
p2027
g17
(g19
S'MG\xfd\xb0\\\x00\x92?'
tRp2028
sS'vb_initialization'
p2029
S'means_only'
p2030
sS'number_of_components_after_hc'
p2031
I128
sS'N_burn_in'
p2032
I1000
sS'N_MCMC'
p2033
I20000
sS'vb_abs_tol'
p2034
F1.0000000000000001e-05
sS'final_number_of_components'
p2035
I128
sS'random_seed'
p2036
I2835971595865665901
sS'sys.argv'
p2037
(lp2038
S'variational_with_hierarchical_first_proposal.py'
p2039
asS'L'
I100
sS'run_second_vb'
p2040
I00
sS'N_perp_ess'
p2041
I10000
sS'vb_converge_step'
p2042
NsS'dim'
p2043
I10
sS'hc_converge_step'
p2044
I16
sS'k'
I10
sS'N_adapt'
p2045
I500
sS'number_of_components_after_vb'
p2046
I155
sS'vb2_converge_step'
p2047
Nsa(dp2048
S'kill_in_hc'
p2049
I01
sS'vb_rel_tol'
p2050
F1e-10
sS'abandon_weights'
p2051
I01
sS'perplexity'
p2052
g17
(g19
S'F\x9b#\xd3\x1d\xdc\xd0?'
tRp2053
sS'N_thin'
p2054
I100
sS'N_max_vb'
p2055
I100
sS'ess'
p2056
g17
(g19
S'%\x92\x9e\xe0\x81\xf9\xc8?'
tRp2057
sS'vb_initialization'
p2058
S'means_only'
p2059
sS'number_of_components_after_hc'
p2060
I255
sS'N_burn_in'
p2061
I1000
sS'N_MCMC'
p2062
I20000
sS'vb_abs_tol'
p2063
F1.0000000000000001e-05
sS'final_number_of_components'
p2064
I255
sS'random_seed'
p2065
I483114069718162293
sS'sys.argv'
p2066
(lp2067
S'variational_with_hierarchical_first_proposal.py'
p2068
asS'L'
I100
sS'run_second_vb'
p2069
I00
sS'N_perp_ess'
p2070
I10000
sS'vb_converge_step'
p2071
NsS'dim'
p2072
I10
sS'hc_converge_step'
p2073
I7
sS'k'
I10
sS'N_adapt'
p2074
I500
sS'number_of_components_after_vb'
p2075
I291
sS'vb2_converge_step'
p2076
Nsa(dp2077
S'kill_in_hc'
p2078
I01
sS'vb_rel_tol'
p2079
F1e-10
sS'abandon_weights'
p2080
I01
sS'perplexity'
p2081
g17
(g19
S'\xa0g?\x16MV\xc7?'
tRp2082
sS'N_thin'
p2083
I100
sS'N_max_vb'
p2084
I100
sS'ess'
p2085
g17
(g19
S'\x105\x1ay\xe7\xb6\xb9?'
tRp2086
sS'vb_initialization'
p2087
S'means_only'
p2088
sS'number_of_components_after_hc'
p2089
I113
sS'N_burn_in'
p2090
I1000
sS'N_MCMC'
p2091
I20000
sS'vb_abs_tol'
p2092
F1.0000000000000001e-05
sS'final_number_of_components'
p2093
I113
sS'random_seed'
p2094
I1986555523100805059
sS'sys.argv'
p2095
(lp2096
S'variational_with_hierarchical_first_proposal.py'
p2097
asS'L'
I100
sS'run_second_vb'
p2098
I00
sS'N_perp_ess'
p2099
I10000
sS'vb_converge_step'
p2100
NsS'dim'
p2101
I10
sS'hc_converge_step'
p2102
I15
sS'k'
I10
sS'N_adapt'
p2103
I500
sS'number_of_components_after_vb'
p2104
I138
sS'vb2_converge_step'
p2105
Nsa(dp2106
S'kill_in_hc'
p2107
I01
sS'vb_rel_tol'
p2108
F1e-10
sS'abandon_weights'
p2109
I01
sS'perplexity'
p2110
g17
(g19
S'\x8bE\xcdT\x83\xcc\xd1?'
tRp2111
sS'N_thin'
p2112
I100
sS'N_max_vb'
p2113
I100
sS'ess'
p2114
g17
(g19
S'\xec\xac&\x97\x86E\xcb?'
tRp2115
sS'vb_initialization'
p2116
S'means_only'
p2117
sS'number_of_components_after_hc'
p2118
I272
sS'N_burn_in'
p2119
I1000
sS'N_MCMC'
p2120
I20000
sS'vb_abs_tol'
p2121
F1.0000000000000001e-05
sS'final_number_of_components'
p2122
I272
sS'random_seed'
p2123
I2152182968915469837
sS'sys.argv'
p2124
(lp2125
S'variational_with_hierarchical_first_proposal.py'
p2126
asS'L'
I100
sS'run_second_vb'
p2127
I00
sS'N_perp_ess'
p2128
I10000
sS'vb_converge_step'
p2129
I89
sS'dim'
p2130
I10
sS'hc_converge_step'
p2131
I6
sS'k'
I10
sS'N_adapt'
p2132
I500
sS'number_of_components_after_vb'
p2133
I313
sS'vb2_converge_step'
p2134
Nsa(dp2135
S'kill_in_hc'
p2136
I01
sS'vb_rel_tol'
p2137
F1e-10
sS'abandon_weights'
p2138
I01
sS'perplexity'
p2139
g17
(g19
S'\xc7\xc79\x8c\x1aT\xd2?'
tRp2140
sS'N_thin'
p2141
I100
sS'N_max_vb'
p2142
I100
sS'ess'
p2143
g17
(g19
S'\x894\xa4\xfe\xcd\xc2\xcb?'
tRp2144
sS'vb2_initialization'
p2145
S'means_only'
p2146
sS'vb_initialization'
p2147
g2146
sS'number_of_components_after_hc'
p2148
I276
sS'N_burn_in'
p2149
I1000
sS'N_MCMC'
p2150
I20000
sS'vb_abs_tol'
p2151
F1.0000000000000001e-05
sS'final_number_of_components'
p2152
I276
sS'random_seed'
p2153
I548225533332573615
sS'sys.argv'
p2154
(lp2155
S'variational_with_hierarchical_first_proposal.py'
p2156
asS'L'
I100
sS'run_second_vb'
p2157
I00
sS'N_perp_ess'
p2158
I10000
sS'vb_converge_step'
p2159
I73
sS'dim'
p2160
I10
sS'hc_converge_step'
p2161
I6
sS'k'
I10
sS'N_adapt'
p2162
I500
sS'number_of_components_after_vb'
p2163
I323
sS'vb2_converge_step'
p2164
Nsa(dp2165
S'kill_in_hc'
p2166
I01
sS'vb_rel_tol'
p2167
F1e-10
sS'abandon_weights'
p2168
I01
sS'perplexity'
p2169
g17
(g19
S'\xf2\x12if4z\xd1?'
tRp2170
sS'N_thin'
p2171
I100
sS'N_max_vb'
p2172
I100
sS'ess'
p2173
g17
(g19
S'\xbc\xde\r]\x86\xfd\xca?'
tRp2174
sS'vb2_initialization'
p2175
S'means_only'
p2176
sS'vb_initialization'
p2177
g2176
sS'number_of_components_after_hc'
p2178
I258
sS'N_burn_in'
p2179
I1000
sS'N_MCMC'
p2180
I20000
sS'vb_abs_tol'
p2181
F1.0000000000000001e-05
sS'final_number_of_components'
p2182
I258
sS'random_seed'
p2183
I306070525713055237
sS'sys.argv'
p2184
(lp2185
S'variational_with_hierarchical_first_proposal.py'
p2186
asS'L'
I100
sS'run_second_vb'
p2187
I00
sS'N_perp_ess'
p2188
I10000
sS'vb_converge_step'
p2189
NsS'dim'
p2190
I10
sS'hc_converge_step'
p2191
I6
sS'k'
I10
sS'N_adapt'
p2192
I500
sS'number_of_components_after_vb'
p2193
I294
sS'vb2_converge_step'
p2194
Nsa(dp2195
S'kill_in_hc'
p2196
I01
sS'vb_rel_tol'
p2197
F1e-10
sS'abandon_weights'
p2198
I01
sS'perplexity'
p2199
g17
(g19
S'\xf1\xa7\xa6d_\xd9\xd0?'
tRp2200
sS'N_thin'
p2201
I100
sS'N_max_vb'
p2202
I100
sS'ess'
p2203
g17
(g19
S'\x0e\xefw9\x99\x94\xc9?'
tRp2204
sS'vb2_initialization'
p2205
S'means_only'
p2206
sS'vb_initialization'
p2207
g2206
sS'number_of_components_after_hc'
p2208
I244
sS'N_burn_in'
p2209
I1000
sS'N_MCMC'
p2210
I20000
sS'vb_abs_tol'
p2211
F1.0000000000000001e-05
sS'final_number_of_components'
p2212
I244
sS'random_seed'
p2213
I1543169447852292263
sS'sys.argv'
p2214
(lp2215
S'variational_with_hierarchical_first_proposal.py'
p2216
asS'L'
I100
sS'run_second_vb'
p2217
I00
sS'N_perp_ess'
p2218
I10000
sS'vb_converge_step'
p2219
NsS'dim'
p2220
I10
sS'hc_converge_step'
p2221
I9
sS'k'
I10
sS'N_adapt'
p2222
I500
sS'number_of_components_after_vb'
p2223
I281
sS'vb2_converge_step'
p2224
Nsa(dp2225
S'kill_in_hc'
p2226
I01
sS'vb_rel_tol'
p2227
F1e-10
sS'abandon_weights'
p2228
I01
sS'perplexity'
p2229
g17
(g19
S'kt\t\xd3\xe2\x0e\xc1?'
tRp2230
sS'N_thin'
p2231
I100
sS'N_max_vb'
p2232
I100
sS'ess'
p2233
g17
(g19
S'K\xdf\x0b\xbbR\\\xaa?'
tRp2234
sS'vb2_initialization'
p2235
S'means_only'
p2236
sS'vb_initialization'
p2237
g2236
sS'number_of_components_after_hc'
p2238
I135
sS'N_burn_in'
p2239
I1000
sS'N_MCMC'
p2240
I20000
sS'vb_abs_tol'
p2241
F1.0000000000000001e-05
sS'final_number_of_components'
p2242
I135
sS'random_seed'
p2243
I2957172649521830742
sS'sys.argv'
p2244
(lp2245
S'variational_with_hierarchical_first_proposal.py'
p2246
asS'L'
I100
sS'run_second_vb'
p2247
I00
sS'N_perp_ess'
p2248
I10000
sS'vb_converge_step'
p2249
NsS'dim'
p2250
I10
sS'hc_converge_step'
p2251
I16
sS'k'
I10
sS'N_adapt'
p2252
I500
sS'number_of_components_after_vb'
p2253
I160
sS'vb2_converge_step'
p2254
Nsa(dp2255
S'kill_in_hc'
p2256
I01
sS'vb_rel_tol'
p2257
F1e-10
sS'abandon_weights'
p2258
I01
sS'perplexity'
p2259
g17
(g19
S'\x9c;\x06\x9d\xe1\xe1\xa9?'
tRp2260
sS'N_thin'
p2261
I100
sS'N_max_vb'
p2262
I100
sS'ess'
p2263
g17
(g19
S'D\xd3\x89\xe3\xa6\x1a\x8b?'
tRp2264
sS'vb2_initialization'
p2265
S'means_only'
p2266
sS'vb_initialization'
p2267
g2266
sS'number_of_components_after_hc'
p2268
I97
sS'N_burn_in'
p2269
I1000
sS'N_MCMC'
p2270
I20000
sS'vb_abs_tol'
p2271
F1.0000000000000001e-05
sS'final_number_of_components'
p2272
I90
sS'random_seed'
p2273
I1501810390313683641
sS'sys.argv'
p2274
(lp2275
S'variational_with_hierarchical_first_proposal.py'
p2276
asS'L'
I100
sS'run_second_vb'
p2277
I01
sS'N_perp_ess'
p2278
I10000
sS'vb_converge_step'
p2279
NsS'dim'
p2280
I10
sS'hc_converge_step'
p2281
I4
sS'k'
I10
sS'N_adapt'
p2282
I500
sS'number_of_components_after_vb'
p2283
I113
sS'vb2_converge_step'
p2284
I98
sa(dp2285
S'kill_in_hc'
p2286
I01
sS'vb_rel_tol'
p2287
F1e-10
sS'abandon_weights'
p2288
I01
sS'perplexity'
p2289
g17
(g19
S'?\xb6\xe0\xa7U<\xaf?'
tRp2290
sS'N_thin'
p2291
I100
sS'N_max_vb'
p2292
I100
sS'ess'
p2293
g17
(g19
S'\xa7\xdc\x8e\x7f\xa2\t\x8b?'
tRp2294
sS'vb2_initialization'
p2295
S'means_only'
p2296
sS'vb_initialization'
p2297
g2296
sS'number_of_components_after_hc'
p2298
I111
sS'N_burn_in'
p2299
I1000
sS'N_MCMC'
p2300
I20000
sS'vb_abs_tol'
p2301
F1.0000000000000001e-05
sS'final_number_of_components'
p2302
I100
sS'random_seed'
p2303
I2216333693068111138
sS'sys.argv'
p2304
(lp2305
S'variational_with_hierarchical_first_proposal.py'
p2306
asS'L'
I100
sS'run_second_vb'
p2307
I01
sS'N_perp_ess'
p2308
I10000
sS'vb_converge_step'
p2309
NsS'dim'
p2310
I10
sS'hc_converge_step'
p2311
I5
sS'k'
I10
sS'N_adapt'
p2312
I500
sS'number_of_components_after_vb'
p2313
I134
sS'vb2_converge_step'
p2314
I72
sa(dp2315
S'kill_in_hc'
p2316
I01
sS'vb_rel_tol'
p2317
F1e-10
sS'abandon_weights'
p2318
I01
sS'perplexity'
p2319
g17
(g19
S'\xd3\x82\xe5\xfa\xd4\x08\xc9?'
tRp2320
sS'N_thin'
p2321
I100
sS'N_max_vb'
p2322
I100
sS'ess'
p2323
g17
(g19
S'9\xb5\xc8T\x1f\xa9\xbf?'
tRp2324
sS'vb2_initialization'
p2325
S'means_only'
p2326
sS'vb_initialization'
p2327
g2326
sS'number_of_components_after_hc'
p2328
I257
sS'N_burn_in'
p2329
I1000
sS'N_MCMC'
p2330
I20000
sS'vb_abs_tol'
p2331
F1.0000000000000001e-05
sS'final_number_of_components'
p2332
I224
sS'random_seed'
p2333
I2701115526189467857
sS'sys.argv'
p2334
(lp2335
S'variational_with_hierarchical_first_proposal.py'
p2336
asS'L'
I100
sS'run_second_vb'
p2337
I01
sS'N_perp_ess'
p2338
I10000
sS'vb_converge_step'
p2339
I84
sS'dim'
p2340
I10
sS'hc_converge_step'
p2341
I5
sS'k'
I10
sS'N_adapt'
p2342
I500
sS'number_of_components_after_vb'
p2343
I315
sS'vb2_converge_step'
p2344
I52
sa(dp2345
S'kill_in_hc'
p2346
I01
sS'vb_rel_tol'
p2347
F1e-10
sS'abandon_weights'
p2348
I01
sS'perplexity'
p2349
g17
(g19
S'\xb6\xe5\x08\x87g#\xc8?'
tRp2350
sS'N_thin'
p2351
I100
sS'N_max_vb'
p2352
I100
sS'ess'
p2353
g17
(g19
S'\x94z\x1eI\x02\x9b\xbe?'
tRp2354
sS'vb2_initialization'
p2355
S'means_only'
p2356
sS'vb_initialization'
p2357
g2356
sS'number_of_components_after_hc'
p2358
I243
sS'N_burn_in'
p2359
I1000
sS'N_MCMC'
p2360
I20000
sS'vb_abs_tol'
p2361
F1.0000000000000001e-05
sS'final_number_of_components'
p2362
I223
sS'random_seed'
p2363
I3308606859112386668
sS'sys.argv'
p2364
(lp2365
S'variational_with_hierarchical_first_proposal.py'
p2366
asS'L'
I100
sS'run_second_vb'
p2367
I01
sS'N_perp_ess'
p2368
I10000
sS'vb_converge_step'
p2369
NsS'dim'
p2370
I10
sS'hc_converge_step'
p2371
I6
sS'k'
I10
sS'N_adapt'
p2372
I500
sS'number_of_components_after_vb'
p2373
I276
sS'vb2_converge_step'
p2374
I58
sa(dp2375
S'kill_in_hc'
p2376
I01
sS'vb_rel_tol'
p2377
F1e-10
sS'abandon_weights'
p2378
I01
sS'perplexity'
p2379
g17
(g19
S'\xb5]3&G\xef\xcc?'
tRp2380
sS'N_thin'
p2381
I100
sS'N_max_vb'
p2382
I100
sS'ess'
p2383
g17
(g19
S'\xb7J\xbe8\\V\xc7?'
tRp2384
sS'vb_initialization'
p2385
S'initial_guess_large_nu'
p2386
sS'number_of_components_after_hc'
p2387
I8
sS'N_burn_in'
p2388
I1000
sS'N_MCMC'
p2389
I20000
sS'vb_abs_tol'
p2390
F1.0000000000000001e-05
sS'final_number_of_components'
p2391
I8
sS'random_seed'
p2392
I3070147247849642317
sS'sys.argv'
p2393
(lp2394
S'variational_with_hierarchical_first_proposal.py'
p2395
asS'L'
I100
sS'run_second_vb'
p2396
I00
sS'N_perp_ess'
p2397
I10000
sS'vb_converge_step'
p2398
NsS'dim'
p2399
I10
sS'hc_converge_step'
p2400
I23
sS'k'
I10
sS'N_adapt'
p2401
I500
sS'number_of_components_after_vb'
p2402
I10
sS'vb2_converge_step'
p2403
Nsa(dp2404
S'kill_in_hc'
p2405
I01
sS'vb_rel_tol'
p2406
F1e-10
sS'abandon_weights'
p2407
I01
sS'perplexity'
p2408
g17
(g19
S'\x14\xdaH\xbb\xd0\xe9\xc2?'
tRp2409
sS'N_thin'
p2410
I100
sS'N_max_vb'
p2411
I100
sS'ess'
p2412
g17
(g19
S'b\xdf\xfdW\x94\xa9\xb9?'
tRp2413
sS'vb_initialization'
p2414
S'initial_guess_large_nu'
p2415
sS'number_of_components_after_hc'
p2416
I18
sS'N_burn_in'
p2417
I1000
sS'N_MCMC'
p2418
I20000
sS'vb_abs_tol'
p2419
F1.0000000000000001e-05
sS'final_number_of_components'
p2420
I18
sS'random_seed'
p2421
I785237763624851008
sS'sys.argv'
p2422
(lp2423
S'variational_with_hierarchical_first_proposal.py'
p2424
asS'L'
I100
sS'run_second_vb'
p2425
I00
sS'N_perp_ess'
p2426
I10000
sS'vb_converge_step'
p2427
NsS'dim'
p2428
I10
sS'hc_converge_step'
p2429
I20
sS'k'
I10
sS'N_adapt'
p2430
I500
sS'number_of_components_after_vb'
p2431
I18
sS'vb2_converge_step'
p2432
Nsa(dp2433
S'kill_in_hc'
p2434
I01
sS'vb_rel_tol'
p2435
F1e-10
sS'abandon_weights'
p2436
I00
sS'perplexity'
p2437
g17
(g19
S'\xfcLc\x895\xc8\xd5?'
tRp2438
sS'N_thin'
p2439
I100
sS'N_max_vb'
p2440
I100
sS'ess'
p2441
g17
(g19
S'\x85\x07\xa7F\xe8\xcc\xd2?'
tRp2442
sS'vb_initialization'
p2443
S'initial_guess_large_nu'
p2444
sS'number_of_components_after_hc'
p2445
I2
sS'N_burn_in'
p2446
I1000
sS'N_MCMC'
p2447
I20000
sS'vb_abs_tol'
p2448
F1.0000000000000001e-05
sS'final_number_of_components'
p2449
I2
sS'random_seed'
p2450
I233028841654439213
sS'sys.argv'
p2451
(lp2452
S'variational_with_hierarchical_first_proposal.py'
p2453
asS'L'
I100
sS'run_second_vb'
p2454
I00
sS'N_perp_ess'
p2455
I10000
sS'vb_converge_step'
p2456
I73
sS'dim'
p2457
I10
sS'hc_converge_step'
p2458
I3
sS'k'
I10
sS'N_adapt'
p2459
I500
sS'number_of_components_after_vb'
p2460
I2
sS'vb2_converge_step'
p2461
Nsa(dp2462
S'kill_in_hc'
p2463
I01
sS'vb_rel_tol'
p2464
F1e-10
sS'abandon_weights'
p2465
I01
sS'perplexity'
p2466
g17
(g19
S'4\xf4\xa9\x07\xd6\xbc\xc4?'
tRp2467
sS'N_thin'
p2468
I100
sS'N_max_vb'
p2469
I100
sS'ess'
p2470
g17
(g19
S'\xa6V;}\xc3\x0f\xbc?'
tRp2471
sS'vb_initialization'
p2472
S'initial_guess_large_nu'
p2473
sS'number_of_components_after_hc'
p2474
I16
sS'N_burn_in'
p2475
I1000
sS'N_MCMC'
p2476
I20000
sS'vb_abs_tol'
p2477
F1.0000000000000001e-05
sS'final_number_of_components'
p2478
I16
sS'random_seed'
p2479
I3627073115577125960
sS'sys.argv'
p2480
(lp2481
S'variational_with_hierarchical_first_proposal.py'
p2482
asS'L'
I100
sS'run_second_vb'
p2483
I00
sS'N_perp_ess'
p2484
I10000
sS'vb_converge_step'
p2485
NsS'dim'
p2486
I10
sS'hc_converge_step'
p2487
I22
sS'k'
I10
sS'N_adapt'
p2488
I500
sS'number_of_components_after_vb'
p2489
I16
sS'vb2_converge_step'
p2490
Nsa(dp2491
S'kill_in_hc'
p2492
I01
sS'vb_rel_tol'
p2493
F1e-10
sS'abandon_weights'
p2494
I00
sS'perplexity'
p2495
g17
(g19
S'f\x10\x1d\xebU\xcb\xd5?'
tRp2496
sS'N_thin'
p2497
I100
sS'N_max_vb'
p2498
I100
sS'ess'
p2499
g17
(g19
S"\x1b\xd1\x95\xf0'\xad\xd2?"
tRp2500
sS'vb_initialization'
p2501
S'initial_guess_large_nu'
p2502
sS'number_of_components_after_hc'
p2503
I11
sS'N_burn_in'
p2504
I1000
sS'N_MCMC'
p2505
I20000
sS'vb_abs_tol'
p2506
F1.0000000000000001e-05
sS'final_number_of_components'
p2507
I11
sS'random_seed'
p2508
I788125146461133242
sS'sys.argv'
p2509
(lp2510
S'variational_with_hierarchical_first_proposal.py'
p2511
asS'L'
I100
sS'run_second_vb'
p2512
I00
sS'N_perp_ess'
p2513
I10000
sS'vb_converge_step'
p2514
NsS'dim'
p2515
I10
sS'hc_converge_step'
p2516
I19
sS'k'
I10
sS'N_adapt'
p2517
I500
sS'number_of_components_after_vb'
p2518
I14
sS'vb2_converge_step'
p2519
Nsa(dp2520
S'kill_in_hc'
p2521
I01
sS'vb_rel_tol'
p2522
F1e-10
sS'abandon_weights'
p2523
I00
sS'perplexity'
p2524
g17
(g19
S'\x81\xaa\xeb\xa1\xcf\xf9\xd5?'
tRp2525
sS'N_thin'
p2526
I100
sS'N_max_vb'
p2527
I100
sS'ess'
p2528
g17
(g19
S'\x97\xf8\x87\n\xb6\xa7\xd2?'
tRp2529
sS'vb_initialization'
p2530
S'initial_guess_large_nu'
p2531
sS'number_of_components_after_hc'
p2532
I22
sS'N_burn_in'
p2533
I1000
sS'N_MCMC'
p2534
I20000
sS'vb_abs_tol'
p2535
F1.0000000000000001e-05
sS'final_number_of_components'
p2536
I22
sS'random_seed'
p2537
I2611733391426896621
sS'sys.argv'
p2538
(lp2539
S'variational_with_hierarchical_first_proposal.py'
p2540
asS'L'
I100
sS'run_second_vb'
p2541
I00
sS'N_perp_ess'
p2542
I10000
sS'vb_converge_step'
p2543
NsS'dim'
p2544
I10
sS'hc_converge_step'
p2545
I21
sS'k'
I10
sS'N_adapt'
p2546
I500
sS'number_of_components_after_vb'
p2547
I22
sS'vb2_converge_step'
p2548
Nsa(dp2549
S'kill_in_hc'
p2550
I01
sS'vb_rel_tol'
p2551
F1e-10
sS'abandon_weights'
p2552
I01
sS'perplexity'
p2553
g17
(g19
S'\xfc\xa6p\x7f\xb2q\xc2?'
tRp2554
sS'N_thin'
p2555
I100
sS'N_max_vb'
p2556
I100
sS'ess'
p2557
g17
(g19
S'n{\xd8\xa0N+\xb1?'
tRp2558
sS'vb_initialization'
p2559
S'initial_guess_large_nu'
p2560
sS'number_of_components_after_hc'
p2561
I81
sS'N_burn_in'
p2562
I1000
sS'N_MCMC'
p2563
I20000
sS'vb_abs_tol'
p2564
F1.0000000000000001e-05
sS'final_number_of_components'
p2565
I81
sS'random_seed'
p2566
I3042971363262602898
sS'sys.argv'
p2567
(lp2568
S'variational_with_hierarchical_first_proposal.py'
p2569
asS'L'
I100
sS'run_second_vb'
p2570
I00
sS'N_perp_ess'
p2571
I10000
sS'vb_converge_step'
p2572
NsS'dim'
p2573
I10
sS'hc_converge_step'
p2574
I21
sS'k'
I10
sS'N_adapt'
p2575
I500
sS'number_of_components_after_vb'
p2576
I91
sS'vb2_converge_step'
p2577
Nsa(dp2578
S'kill_in_hc'
p2579
I01
sS'vb_rel_tol'
p2580
F1e-10
sS'abandon_weights'
p2581
I00
sS'perplexity'
p2582
g17
(g19
S'\xf8\xe9\xa7\xd9\xd0\xb5\xd3?'
tRp2583
sS'N_thin'
p2584
I100
sS'N_max_vb'
p2585
I100
sS'ess'
p2586
g17
(g19
S'z\x18\xae\x99\x1dS\xcd?'
tRp2587
sS'vb_initialization'
p2588
S'initial_guess_large_nu'
p2589
sS'number_of_components_after_hc'
p2590
I65
sS'N_burn_in'
p2591
I1000
sS'N_MCMC'
p2592
I20000
sS'vb_abs_tol'
p2593
F1.0000000000000001e-05
sS'final_number_of_components'
p2594
I65
sS'random_seed'
p2595
I92915535760508030
sS'sys.argv'
p2596
(lp2597
S'variational_with_hierarchical_first_proposal.py'
p2598
asS'L'
I100
sS'run_second_vb'
p2599
I00
sS'N_perp_ess'
p2600
I10000
sS'vb_converge_step'
p2601
NsS'dim'
p2602
I10
sS'hc_converge_step'
p2603
I8
sS'k'
I10
sS'N_adapt'
p2604
I500
sS'number_of_components_after_vb'
p2605
I87
sS'vb2_converge_step'
p2606
Nsa(dp2607
S'kill_in_hc'
p2608
I01
sS'vb_rel_tol'
p2609
F1e-10
sS'abandon_weights'
p2610
I00
sS'perplexity'
p2611
g17
(g19
S'\x7f\xa9\xf2KH\t\xd3?'
tRp2612
sS'N_thin'
p2613
I100
sS'N_max_vb'
p2614
I100
sS'ess'
p2615
g17
(g19
S'\xcf\xb4\xc0[\xa9>\xcc?'
tRp2616
sS'vb_initialization'
p2617
S'initial_guess_large_nu'
p2618
sS'number_of_components_after_hc'
p2619
I67
sS'N_burn_in'
p2620
I1000
sS'N_MCMC'
p2621
I20000
sS'vb_abs_tol'
p2622
F1.0000000000000001e-05
sS'final_number_of_components'
p2623
I67
sS'random_seed'
p2624
I3244954629170222937
sS'sys.argv'
p2625
(lp2626
S'variational_with_hierarchical_first_proposal.py'
p2627
asS'L'
I100
sS'run_second_vb'
p2628
I00
sS'N_perp_ess'
p2629
I10000
sS'vb_converge_step'
p2630
NsS'dim'
p2631
I10
sS'hc_converge_step'
p2632
I7
sS'k'
I10
sS'N_adapt'
p2633
I500
sS'number_of_components_after_vb'
p2634
I83
sS'vb2_converge_step'
p2635
Nsa(dp2636
S'kill_in_hc'
p2637
I01
sS'vb_rel_tol'
p2638
F1e-10
sS'abandon_weights'
p2639
I01
sS'perplexity'
p2640
g17
(g19
S'\x17\xb1(FA\x82\xd1?'
tRp2641
sS'N_thin'
p2642
I100
sS'N_max_vb'
p2643
I100
sS'ess'
p2644
g17
(g19
S'\xf9dA\x01(o\xca?'
tRp2645
sS'vb_initialization'
p2646
S'initial_guess_large_nu'
p2647
sS'number_of_components_after_hc'
p2648
I185
sS'N_burn_in'
p2649
I1000
sS'N_MCMC'
p2650
I20000
sS'vb_abs_tol'
p2651
F1.0000000000000001e-05
sS'final_number_of_components'
p2652
I185
sS'random_seed'
p2653
I1137647265430882927
sS'sys.argv'
p2654
(lp2655
S'variational_with_hierarchical_first_proposal.py'
p2656
asS'L'
I100
sS'run_second_vb'
p2657
I00
sS'N_perp_ess'
p2658
I10000
sS'vb_converge_step'
p2659
NsS'dim'
p2660
I10
sS'hc_converge_step'
p2661
I7
sS'k'
I10
sS'N_adapt'
p2662
I500
sS'number_of_components_after_vb'
p2663
I200
sS'vb2_converge_step'
p2664
Nsa(dp2665
S'kill_in_hc'
p2666
I01
sS'vb_rel_tol'
p2667
F1e-10
sS'abandon_weights'
p2668
I01
sS'perplexity'
p2669
g17
(g19
S'\x01`\xf863`\xd1?'
tRp2670
sS'N_thin'
p2671
I100
sS'N_max_vb'
p2672
I100
sS'ess'
p2673
g17
(g19
S'0\xb8~\x1b/\x81\xc8?'
tRp2674
sS'vb_initialization'
p2675
S'initial_guess_large_nu'
p2676
sS'number_of_components_after_hc'
p2677
I129
sS'N_burn_in'
p2678
I1000
sS'N_MCMC'
p2679
I20000
sS'vb_abs_tol'
p2680
F1.0000000000000001e-05
sS'final_number_of_components'
p2681
I129
sS'random_seed'
p2682
I847601310343435625
sS'sys.argv'
p2683
(lp2684
S'variational_with_hierarchical_first_proposal.py'
p2685
asS'L'
I100
sS'run_second_vb'
p2686
I00
sS'N_perp_ess'
p2687
I10000
sS'vb_converge_step'
p2688
NsS'dim'
p2689
I10
sS'hc_converge_step'
p2690
I12
sS'k'
I10
sS'N_adapt'
p2691
I500
sS'number_of_components_after_vb'
p2692
I143
sS'vb2_converge_step'
p2693
Nsa(dp2694
S'kill_in_hc'
p2695
I01
sS'vb_rel_tol'
p2696
F1e-10
sS'abandon_weights'
p2697
I01
sS'perplexity'
p2698
g17
(g19
S'l\xed\x9b\xa9\xd0_\xbd?'
tRp2699
sS'N_thin'
p2700
I100
sS'N_max_vb'
p2701
I100
sS'ess'
p2702
g17
(g19
S'R\x98`\x0bKT\xa4?'
tRp2703
sS'vb_initialization'
p2704
S'initial_guess_large_nu'
p2705
sS'number_of_components_after_hc'
p2706
I117
sS'N_burn_in'
p2707
I1000
sS'N_MCMC'
p2708
I20000
sS'vb_abs_tol'
p2709
F1.0000000000000001e-05
sS'final_number_of_components'
p2710
I117
sS'random_seed'
p2711
I3006534575218326041
sS'sys.argv'
p2712
(lp2713
S'variational_with_hierarchical_first_proposal.py'
p2714
asS'L'
I100
sS'run_second_vb'
p2715
I00
sS'N_perp_ess'
p2716
I10000
sS'vb_converge_step'
p2717
NsS'dim'
p2718
I10
sS'hc_converge_step'
p2719
I13
sS'k'
I10
sS'N_adapt'
p2720
I500
sS'number_of_components_after_vb'
p2721
I127
sS'vb2_converge_step'
p2722
Nsa(dp2723
S'kill_in_hc'
p2724
I01
sS'vb_rel_tol'
p2725
F1e-10
sS'abandon_weights'
p2726
I00
sS'perplexity'
p2727
g17
(g19
S'\xeajd\x81\tb\xd5?'
tRp2728
sS'N_thin'
p2729
I100
sS'N_max_vb'
p2730
I100
sS'ess'
p2731
g17
(g19
S'\xcdS\xe3,\x14\x7f\xd1?'
tRp2732
sS'vb_initialization'
p2733
S'initial_guess_large_nu'
p2734
sS'number_of_components_after_hc'
p2735
I35
sS'N_burn_in'
p2736
I1000
sS'N_MCMC'
p2737
I20000
sS'vb_abs_tol'
p2738
F1.0000000000000001e-05
sS'final_number_of_components'
p2739
I35
sS'random_seed'
p2740
I2944302965125268051
sS'sys.argv'
p2741
(lp2742
S'variational_with_hierarchical_first_proposal.py'
p2743
asS'L'
I100
sS'run_second_vb'
p2744
I00
sS'N_perp_ess'
p2745
I10000
sS'vb_converge_step'
p2746
NsS'dim'
p2747
I10
sS'hc_converge_step'
p2748
I26
sS'k'
I10
sS'N_adapt'
p2749
I500
sS'number_of_components_after_vb'
p2750
I38
sS'vb2_converge_step'
p2751
Nsa(dp2752
S'kill_in_hc'
p2753
I01
sS'vb_rel_tol'
p2754
F1e-10
sS'abandon_weights'
p2755
I00
sS'perplexity'
p2756
g17
(g19
S'F\x90\xadw\xfc\x9b\xd3?'
tRp2757
sS'N_thin'
p2758
I100
sS'N_max_vb'
p2759
I100
sS'ess'
p2760
g17
(g19
S'\xcc\xde\xe0 \x96\x85\xcc?'
tRp2761
sS'vb_initialization'
p2762
S'initial_guess_large_nu'
p2763
sS'number_of_components_after_hc'
p2764
I134
sS'N_burn_in'
p2765
I1000
sS'N_MCMC'
p2766
I20000
sS'vb_abs_tol'
p2767
F1.0000000000000001e-05
sS'final_number_of_components'
p2768
I134
sS'random_seed'
p2769
I4218860346005921024
sS'sys.argv'
p2770
(lp2771
S'variational_with_hierarchical_first_proposal.py'
p2772
asS'L'
I100
sS'run_second_vb'
p2773
I00
sS'N_perp_ess'
p2774
I10000
sS'vb_converge_step'
p2775
NsS'dim'
p2776
I10
sS'hc_converge_step'
p2777
I10
sS'k'
I10
sS'N_adapt'
p2778
I500
sS'number_of_components_after_vb'
p2779
I150
sS'vb2_converge_step'
p2780
Nsa.