(lp1
(dp2
S'kill_in_hc'
p3
I01
sS'dim'
p4
I2
sS'random_seed'
p5
I2623930667503783356
sS'hc_converge_step'
p6
I23
sS'final_number_of_components'
p7
I14
sS'sys.argv'
p8
(lp9
S'original_first_proposal.py'
p10
asS'k'
I10
sS'number_of_chain_groups'
p11
I1
sS'L'
I100
sS'N_perp_ess'
p12
I10000
sS'N_adapt'
p13
I500
sS'N_burn_in'
p14
I1000
sS'critical_r'
p15
F2
sS'N_MCMC'
p16
I10000
sS'perplexity'
p17
cnumpy.core.multiarray
scalar
p18
(cnumpy
dtype
p19
(S'f8'
I0
I1
tRp20
(I3
S'<'
NNNI-1
I-1
I0
tbS'\x8cG\xb1\x18\xe3\x02\xe2?'
tRp21
sS'ess'
p22
g18
(g20
S'\xac7IJc\x91\xdf?'
tRp23
sS'K_g'
p24
I15
sa(dp25
S'kill_in_hc'
p26
I01
sS'dim'
p27
I2
sS'random_seed'
p28
I3096157673451835608
sS'hc_converge_step'
p29
I26
sS'final_number_of_components'
p30
I12
sS'sys.argv'
p31
(lp32
S'original_first_proposal.py'
p33
asS'k'
I10
sS'L'
I100
sS'N_perp_ess'
p34
I10000
sS'N_adapt'
p35
I500
sS'N_burn_in'
p36
I1000
sS'critical_r'
p37
F2
sS'N_MCMC'
p38
I10000
sS'ess'
p39
g18
(g20
S'\xe7VM4\x9dd\xde?'
tRp40
sS'perplexity'
p41
g18
(g20
S'\xa7\xc7\x84N\x87D\xe1?'
tRp42
sS'number_of_chain_groups'
p43
I1
sS'K_g'
p44
I15
sa(dp45
S'kill_in_hc'
p46
I01
sS'dim'
p47
I2
sS'random_seed'
p48
I1050190001986477759
sS'hc_converge_step'
p49
I31
sS'final_number_of_components'
p50
I14
sS'sys.argv'
p51
(lp52
S'original_first_proposal.py'
p53
asS'k'
I10
sS'number_of_chain_groups'
p54
I1
sS'L'
I100
sS'N_perp_ess'
p55
I10000
sS'N_adapt'
p56
I500
sS'N_burn_in'
p57
I1000
sS'critical_r'
p58
F2
sS'N_MCMC'
p59
I10000
sS'perplexity'
p60
g18
(g20
S'\xb0=\x1c\x96U\xbd\xe1?'
tRp61
sS'ess'
p62
g18
(g20
S'X5\xeb\xed\x9e\x8a\xde?'
tRp63
sS'K_g'
p64
I15
sa(dp65
S'kill_in_hc'
p66
I01
sS'dim'
p67
I2
sS'random_seed'
p68
I3475023412279765586
sS'hc_converge_step'
p69
I23
sS'final_number_of_components'
p70
I15
sS'sys.argv'
p71
(lp72
S'original_first_proposal.py'
p73
asS'k'
I10
sS'L'
I100
sS'N_perp_ess'
p74
I10000
sS'N_adapt'
p75
I500
sS'N_burn_in'
p76
I1000
sS'critical_r'
p77
F2
sS'N_MCMC'
p78
I10000
sS'ess'
p79
g18
(g20
S'\xccz\xb4\x1ao\x14\xe0?'
tRp80
sS'perplexity'
p81
g18
(g20
S'\xbci\xbc\xd9\x03o\xe2?'
tRp82
sS'number_of_chain_groups'
p83
I1
sS'K_g'
p84
I15
sa(dp85
S'kill_in_hc'
p86
I01
sS'dim'
p87
I2
sS'random_seed'
p88
I907082853890530706
sS'hc_converge_step'
p89
I17
sS'final_number_of_components'
p90
I12
sS'sys.argv'
p91
(lp92
S'original_first_proposal.py'
p93
asS'k'
I10
sS'number_of_chain_groups'
p94
I1
sS'L'
I100
sS'N_perp_ess'
p95
I10000
sS'N_adapt'
p96
I500
sS'N_burn_in'
p97
I1000
sS'critical_r'
p98
F2
sS'N_MCMC'
p99
I10000
sS'perplexity'
p100
g18
(g20
S'\xb8\x0e\xa90m<\xe2?'
tRp101
sS'ess'
p102
g18
(g20
S'~\xf6n\xe2\x8bg\xdb?'
tRp103
sS'K_g'
p104
I15
sa(dp105
S'kill_in_hc'
p106
I01
sS'dim'
p107
I2
sS'random_seed'
p108
I1587918929887278818
sS'hc_converge_step'
p109
I22
sS'final_number_of_components'
p110
I15
sS'sys.argv'
p111
(lp112
S'original_first_proposal.py'
p113
asS'k'
I10
sS'L'
I100
sS'N_perp_ess'
p114
I10000
sS'N_adapt'
p115
I500
sS'N_burn_in'
p116
I1000
sS'critical_r'
p117
F2
sS'N_MCMC'
p118
I10000
sS'ess'
p119
g18
(g20
S'\xe9%\xb3E\xab6\xde?'
tRp120
sS'perplexity'
p121
g18
(g20
S'\xa7\xb11\xc5\x84*\xe1?'
tRp122
sS'number_of_chain_groups'
p123
I1
sS'K_g'
p124
I15
sa(dp125
S'kill_in_hc'
p126
I01
sS'dim'
p127
I2
sS'random_seed'
p128
I338800252563199549
sS'hc_converge_step'
p129
I20
sS'final_number_of_components'
p130
I14
sS'sys.argv'
p131
(lp132
S'original_first_proposal.py'
p133
asS'k'
I10
sS'number_of_chain_groups'
p134
I1
sS'L'
I100
sS'N_perp_ess'
p135
I10000
sS'N_adapt'
p136
I500
sS'N_burn_in'
p137
I1000
sS'critical_r'
p138
F2
sS'N_MCMC'
p139
I10000
sS'perplexity'
p140
g18
(g20
S'\xa4Z\xc7\xa5^\xdd\xe1?'
tRp141
sS'ess'
p142
g18
(g20
S'k\xe1C~j\xd3\xde?'
tRp143
sS'K_g'
p144
I15
sa(dp145
S'kill_in_hc'
p146
I01
sS'dim'
p147
I2
sS'random_seed'
p148
I793812678509069874
sS'hc_converge_step'
p149
I34
sS'final_number_of_components'
p150
I14
sS'sys.argv'
p151
(lp152
S'original_first_proposal.py'
p153
asS'k'
I10
sS'L'
I100
sS'N_perp_ess'
p154
I10000
sS'N_adapt'
p155
I500
sS'N_burn_in'
p156
I1000
sS'critical_r'
p157
F2
sS'N_MCMC'
p158
I10000
sS'ess'
p159
g18
(g20
S'f\x88s\xa0\xff_\xe1?'
tRp160
sS'perplexity'
p161
g18
(g20
S'\x83\t\t\x0b\xdc\xcc\xe3?'
tRp162
sS'number_of_chain_groups'
p163
I1
sS'K_g'
p164
I15
sa(dp165
S'kill_in_hc'
p166
I01
sS'dim'
p167
I2
sS'random_seed'
p168
I415511895712748089
sS'hc_converge_step'
p169
I27
sS'final_number_of_components'
p170
I13
sS'sys.argv'
p171
(lp172
S'original_first_proposal.py'
p173
asS'k'
I10
sS'number_of_chain_groups'
p174
I1
sS'L'
I100
sS'N_perp_ess'
p175
I10000
sS'N_adapt'
p176
I500
sS'N_burn_in'
p177
I1000
sS'critical_r'
p178
F2
sS'N_MCMC'
p179
I10000
sS'perplexity'
p180
g18
(g20
S'mF\xcb$"\xae\xe3?'
tRp181
sS'ess'
p182
g18
(g20
S'l<\xcd7?d\xe1?'
tRp183
sS'K_g'
p184
I15
sa(dp185
S'kill_in_hc'
p186
I01
sS'dim'
p187
I2
sS'random_seed'
p188
I3599643070167429977
sS'hc_converge_step'
p189
I46
sS'final_number_of_components'
p190
I14
sS'sys.argv'
p191
(lp192
S'original_first_proposal.py'
p193
asS'k'
I10
sS'L'
I100
sS'N_perp_ess'
p194
I10000
sS'N_adapt'
p195
I500
sS'N_burn_in'
p196
I1000
sS'critical_r'
p197
F2
sS'N_MCMC'
p198
I10000
sS'ess'
p199
g18
(g20
S'%\xbdJ79\xa2\xdd?'
tRp200
sS'perplexity'
p201
g18
(g20
S'\xea\xff\xb6j\xa6\xeb\xe0?'
tRp202
sS'number_of_chain_groups'
p203
I1
sS'K_g'
p204
I15
sa(dp205
S'N_max_vb'
p206
I1000
sS'dim'
p207
I2
sS'random_seed'
p208
I3197425952127843284
sS'final_number_of_components'
p209
I5
sS'sys.argv'
p210
(lp211
S'pure_variational_first_proposal.py'
p212
asS'k'
I10
sS'abandon_weights'
p213
I00
sS'vb_rel_tol'
p214
F1e-10
sS'N_adapt'
p215
I500
sS'N_burn_in'
p216
I1000
sS'critical_r'
p217
F2
sS'N_MCMC'
p218
I20000
sS'vb_initialization'
p219
S'long_patches'
p220
sS'N_perp_ess'
p221
I10000
sS'vb_converge_step'
p222
I301
sS'perplexity'
p223
g18
(g20
S'\xdf$\xb8\x8f\x9dt\xed?'
tRp224
sS'ess'
p225
g18
(g20
S'.<\x01\xca\x95j\xeb?'
tRp226
sS'vb_abs_tol'
p227
F1.0000000000000001e-05
sS'vb_prune'
p228
F666.66666666666663
sS'K_g'
p229
I15
sS'N_thin'
p230
I10
sa(dp231
S'N_max_vb'
p232
I1000
sS'dim'
p233
I2
sS'random_seed'
p234
I4714160941875974
sS'final_number_of_components'
p235
I5
sS'sys.argv'
p236
(lp237
S'pure_variational_first_proposal.py'
p238
asS'k'
I10
sS'critical_r'
p239
F2
sS'vb_rel_tol'
p240
F1e-10
sS'vb_prune'
p241
F666.66666666666663
sS'N_adapt'
p242
I500
sS'N_burn_in'
p243
I1000
sS'abandon_weights'
p244
I00
sS'N_MCMC'
p245
I20000
sS'N_perp_ess'
p246
I10000
sS'ess'
p247
g18
(g20
S'4S\x19\xf3\xdc<\xec?'
tRp248
sS'perplexity'
p249
g18
(g20
S'k\x96\x04\x9c\xae\xec\xed?'
tRp250
sS'vb_converge_step'
p251
I386
sS'vb_abs_tol'
p252
F1.0000000000000001e-05
sS'vb_initialization'
p253
S'long_patches'
p254
sS'K_g'
p255
I15
sS'N_thin'
p256
I10
sa(dp257
S'N_max_vb'
p258
I1000
sS'dim'
p259
I2
sS'random_seed'
p260
I2131390506659017666
sS'final_number_of_components'
p261
I6
sS'sys.argv'
p262
(lp263
S'pure_variational_first_proposal.py'
p264
asS'k'
I10
sS'abandon_weights'
p265
I00
sS'vb_rel_tol'
p266
F1e-10
sS'N_adapt'
p267
I500
sS'N_burn_in'
p268
I1000
sS'critical_r'
p269
F2
sS'N_MCMC'
p270
I20000
sS'vb_initialization'
p271
S'long_patches'
p272
sS'N_perp_ess'
p273
I10000
sS'vb_converge_step'
p274
I484
sS'perplexity'
p275
g18
(g20
S'\xb6\x03\xafiS0\xef?'
tRp276
sS'ess'
p277
g18
(g20
S'be\xaa\xc0\xc8r\xee?'
tRp278
sS'vb_abs_tol'
p279
F1.0000000000000001e-05
sS'vb_prune'
p280
F666.66666666666663
sS'K_g'
p281
I15
sS'N_thin'
p282
I10
sa(dp283
S'N_max_vb'
p284
I1000
sS'dim'
p285
I2
sS'random_seed'
p286
I4218640960490029313
sS'final_number_of_components'
p287
I5
sS'sys.argv'
p288
(lp289
S'pure_variational_first_proposal.py'
p290
asS'k'
I10
sS'critical_r'
p291
F2
sS'vb_rel_tol'
p292
F1e-10
sS'vb_prune'
p293
F666.66666666666663
sS'N_adapt'
p294
I500
sS'N_burn_in'
p295
I1000
sS'abandon_weights'
p296
I00
sS'N_MCMC'
p297
I20000
sS'N_perp_ess'
p298
I10000
sS'ess'
p299
g18
(g20
S'\xe9lfi\xb0\x07\xec?'
tRp300
sS'perplexity'
p301
g18
(g20
S"\x87'D\xa9\x80\xbc\xed?"
tRp302
sS'vb_converge_step'
p303
I626
sS'vb_abs_tol'
p304
F1.0000000000000001e-05
sS'vb_initialization'
p305
S'long_patches'
p306
sS'K_g'
p307
I15
sS'N_thin'
p308
I10
sa(dp309
S'N_max_vb'
p310
I1000
sS'dim'
p311
I2
sS'random_seed'
p312
I2265744076118258866
sS'final_number_of_components'
p313
I5
sS'sys.argv'
p314
(lp315
S'pure_variational_first_proposal.py'
p316
asS'k'
I10
sS'abandon_weights'
p317
I00
sS'vb_rel_tol'
p318
F1e-10
sS'N_adapt'
p319
I500
sS'N_burn_in'
p320
I1000
sS'critical_r'
p321
F2
sS'N_MCMC'
p322
I20000
sS'vb_initialization'
p323
S'long_patches'
p324
sS'N_perp_ess'
p325
I10000
sS'vb_converge_step'
p326
I613
sS'perplexity'
p327
g18
(g20
S'\xd7\xae5V\x17\\\xee?'
tRp328
sS'ess'
p329
g18
(g20
S'"|\xeb\t\xb6\x18\xed?'
tRp330
sS'vb_abs_tol'
p331
F1.0000000000000001e-05
sS'vb_prune'
p332
F666.66666666666663
sS'K_g'
p333
I15
sS'N_thin'
p334
I10
sa(dp335
S'N_max_vb'
p336
I1000
sS'dim'
p337
I2
sS'random_seed'
p338
I994629478259920198
sS'final_number_of_components'
p339
I6
sS'sys.argv'
p340
(lp341
S'pure_variational_first_proposal.py'
p342
asS'k'
I10
sS'critical_r'
p343
F2
sS'vb_rel_tol'
p344
F1e-10
sS'vb_prune'
p345
F666.66666666666663
sS'N_adapt'
p346
I500
sS'N_burn_in'
p347
I1000
sS'abandon_weights'
p348
I00
sS'N_MCMC'
p349
I20000
sS'N_perp_ess'
p350
I10000
sS'ess'
p351
g18
(g20
S',\xaa\x83{3\x02\xed?'
tRp352
sS'perplexity'
p353
g18
(g20
S'\x88x\x9c\x87\xaa\x90\xee?'
tRp354
sS'vb_converge_step'
p355
I662
sS'vb_abs_tol'
p356
F1.0000000000000001e-05
sS'vb_initialization'
p357
S'long_patches'
p358
sS'K_g'
p359
I15
sS'N_thin'
p360
I10
sa(dp361
S'N_max_vb'
p362
I1000
sS'dim'
p363
I2
sS'random_seed'
p364
I571496754024651184
sS'final_number_of_components'
p365
I5
sS'sys.argv'
p366
(lp367
S'pure_variational_first_proposal.py'
p368
asS'k'
I10
sS'abandon_weights'
p369
I00
sS'vb_rel_tol'
p370
F1e-10
sS'N_adapt'
p371
I500
sS'N_burn_in'
p372
I1000
sS'critical_r'
p373
F2
sS'N_MCMC'
p374
I20000
sS'vb_initialization'
p375
S'long_patches'
p376
sS'N_perp_ess'
p377
I10000
sS'vb_converge_step'
p378
I740
sS'perplexity'
p379
g18
(g20
S'\xb0.\xc8b\xad \xee?'
tRp380
sS'ess'
p381
g18
(g20
S'\x12\xefy\xa4;\x9e\xec?'
tRp382
sS'vb_abs_tol'
p383
F1.0000000000000001e-05
sS'vb_prune'
p384
F666.66666666666663
sS'K_g'
p385
I15
sS'N_thin'
p386
I10
sa(dp387
S'N_max_vb'
p388
I1000
sS'dim'
p389
I2
sS'random_seed'
p390
I3765384545801419381
sS'final_number_of_components'
p391
I5
sS'sys.argv'
p392
(lp393
S'pure_variational_first_proposal.py'
p394
asS'k'
I10
sS'critical_r'
p395
F2
sS'vb_rel_tol'
p396
F1e-10
sS'vb_prune'
p397
F666.66666666666663
sS'N_adapt'
p398
I500
sS'N_burn_in'
p399
I1000
sS'abandon_weights'
p400
I00
sS'N_MCMC'
p401
I20000
sS'N_perp_ess'
p402
I10000
sS'ess'
p403
g18
(g20
S';\xc2`\x04\xea\xfe\xeb?'
tRp404
sS'perplexity'
p405
g18
(g20
S'=\x7f\xe7cRA\xee?'
tRp406
sS'vb_converge_step'
p407
I986
sS'vb_abs_tol'
p408
F1.0000000000000001e-05
sS'vb_initialization'
p409
S'long_patches'
p410
sS'K_g'
p411
I15
sS'N_thin'
p412
I10
sa(dp413
S'N_max_vb'
p414
I1000
sS'dim'
p415
I2
sS'random_seed'
p416
I1832008209958230668
sS'final_number_of_components'
p417
I6
sS'sys.argv'
p418
(lp419
S'pure_variational_first_proposal.py'
p420
asS'k'
I10
sS'abandon_weights'
p421
I00
sS'vb_rel_tol'
p422
F1e-10
sS'N_adapt'
p423
I500
sS'N_burn_in'
p424
I1000
sS'critical_r'
p425
F2
sS'N_MCMC'
p426
I20000
sS'vb_initialization'
p427
S'long_patches'
p428
sS'N_perp_ess'
p429
I10000
sS'vb_converge_step'
p430
NsS'perplexity'
p431
g18
(g20
S'/\xf5(\r\x1fI\xef?'
tRp432
sS'ess'
p433
g18
(g20
S'\x913\xb7l\xe1N\xee?'
tRp434
sS'vb_abs_tol'
p435
F1.0000000000000001e-05
sS'vb_prune'
p436
F666.66666666666663
sS'K_g'
p437
I15
sS'N_thin'
p438
I10
sa(dp439
S'N_max_vb'
p440
I1000
sS'dim'
p441
I2
sS'random_seed'
p442
I2384298322133446016
sS'final_number_of_components'
p443
I7
sS'sys.argv'
p444
(lp445
S'pure_variational_first_proposal.py'
p446
asS'k'
I10
sS'critical_r'
p447
F2
sS'vb_rel_tol'
p448
F1e-10
sS'vb_prune'
p449
F666.66666666666663
sS'N_adapt'
p450
I500
sS'N_burn_in'
p451
I1000
sS'abandon_weights'
p452
I00
sS'N_MCMC'
p453
I20000
sS'N_perp_ess'
p454
I10000
sS'ess'
p455
g18
(g20
S'\xa2\xf14\xb0\n\x8b\xee?'
tRp456
sS'perplexity'
p457
g18
(g20
S'F\xa0L\xceO\\\xef?'
tRp458
sS'vb_converge_step'
p459
NsS'vb_abs_tol'
p460
F1.0000000000000001e-05
sS'vb_initialization'
p461
S'long_patches'
p462
sS'K_g'
p463
I15
sS'N_thin'
p464
I10
sa(dp465
S'N_max_vb'
p466
I1000
sS'dim'
p467
I2
sS'random_seed'
p468
I4233751409955562800
sS'final_number_of_components'
p469
I4
sS'sys.argv'
p470
(lp471
S'pure_variational_first_proposal.py'
p472
asS'k'
I10
sS'abandon_weights'
p473
I00
sS'vb_rel_tol'
p474
F1e-10
sS'N_adapt'
p475
I500
sS'N_burn_in'
p476
I1000
sS'critical_r'
p477
F2
sS'N_MCMC'
p478
I10000
sS'vb_initialization'
p479
S'long_patches'
p480
sS'N_perp_ess'
p481
I10000
sS'vb_converge_step'
p482
I425
sS'perplexity'
p483
g18
(g20
S'\x18\x89\xbf\x99\xb5\x9f\xec?'
tRp484
sS'ess'
p485
g18
(g20
S'\x12\x92\x16\xc3\xc3S\xe9?'
tRp486
sS'vb_abs_tol'
p487
F1.0000000000000001e-05
sS'vb_prune'
p488
F333.33333333333331
sS'K_g'
p489
I15
sS'N_thin'
p490
I10
sa(dp491
S'N_max_vb'
p492
I1000
sS'dim'
p493
I2
sS'random_seed'
p494
I1343490954502031471
sS'final_number_of_components'
p495
I5
sS'sys.argv'
p496
(lp497
S'pure_variational_first_proposal.py'
p498
asS'k'
I10
sS'critical_r'
p499
F2
sS'vb_rel_tol'
p500
F1e-10
sS'vb_prune'
p501
F333.33333333333331
sS'N_adapt'
p502
I500
sS'N_burn_in'
p503
I1000
sS'abandon_weights'
p504
I00
sS'N_MCMC'
p505
I10000
sS'N_perp_ess'
p506
I10000
sS'ess'
p507
g18
(g20
S'\xfc;{\x92\x98\x15\xec?'
tRp508
sS'perplexity'
p509
g18
(g20
S'\x98\xed\xe3\xad\x1d\xb7\xee?'
tRp510
sS'vb_converge_step'
p511
I578
sS'vb_abs_tol'
p512
F1.0000000000000001e-05
sS'vb_initialization'
p513
S'long_patches'
p514
sS'K_g'
p515
I15
sS'N_thin'
p516
I10
sa(dp517
S'N_max_vb'
p518
I1000
sS'dim'
p519
I2
sS'random_seed'
p520
I2314559554392024137
sS'final_number_of_components'
p521
I5
sS'sys.argv'
p522
(lp523
S'pure_variational_first_proposal.py'
p524
asS'k'
I10
sS'abandon_weights'
p525
I00
sS'vb_rel_tol'
p526
F1e-10
sS'N_adapt'
p527
I500
sS'N_burn_in'
p528
I1000
sS'critical_r'
p529
F2
sS'N_MCMC'
p530
I10000
sS'vb_initialization'
p531
S'long_patches'
p532
sS'N_perp_ess'
p533
I10000
sS'vb_converge_step'
p534
I697
sS'perplexity'
p535
g18
(g20
S'u\xde2m\xfbO\xed?'
tRp536
sS'ess'
p537
g18
(g20
S'\n\x14\xd2\xb5\x10\xe3\xdf?'
tRp538
sS'vb_abs_tol'
p539
F1.0000000000000001e-05
sS'vb_prune'
p540
F333.33333333333331
sS'K_g'
p541
I15
sS'N_thin'
p542
I10
sa(dp543
S'N_max_vb'
p544
I1000
sS'dim'
p545
I2
sS'random_seed'
p546
I2258610398578934822
sS'final_number_of_components'
p547
I5
sS'sys.argv'
p548
(lp549
S'pure_variational_first_proposal.py'
p550
asS'k'
I10
sS'critical_r'
p551
F2
sS'vb_rel_tol'
p552
F1e-10
sS'vb_prune'
p553
F333.33333333333331
sS'N_adapt'
p554
I500
sS'N_burn_in'
p555
I1000
sS'abandon_weights'
p556
I00
sS'N_MCMC'
p557
I10000
sS'N_perp_ess'
p558
I10000
sS'ess'
p559
g18
(g20
S'\xb0G\x91m\xe6\x83\xeb?'
tRp560
sS'perplexity'
p561
g18
(g20
S'UI\x96@\xd4B\xee?'
tRp562
sS'vb_converge_step'
p563
I815
sS'vb_abs_tol'
p564
F1.0000000000000001e-05
sS'vb_initialization'
p565
S'long_patches'
p566
sS'K_g'
p567
I15
sS'N_thin'
p568
I10
sa(dp569
S'kill_in_hc'
p570
I01
sS'dim'
p571
I10
sS'random_seed'
p572
I3390946440641682688
sS'hc_converge_step'
p573
I17
sS'final_number_of_components'
p574
I15
sS'sys.argv'
p575
(lp576
S'original_first_proposal.py'
p577
asS'k'
I10
sS'number_of_chain_groups'
p578
I1
sS'L'
I100
sS'N_perp_ess'
p579
I10000
sS'N_adapt'
p580
I500
sS'N_burn_in'
p581
I1000
sS'critical_r'
p582
F2
sS'N_MCMC'
p583
I20000
sS'perplexity'
p584
g18
(g20
S'\xa5\\\xc5W\xe5\xf2\xe6?'
tRp585
sS'ess'
p586
g18
(g20
S"'!9\xfc\xa0\x11\xe3?"
tRp587
sS'K_g'
p588
I15
sa(dp589
S'kill_in_hc'
p590
I01
sS'dim'
p591
I10
sS'random_seed'
p592
I88930933563057627
sS'hc_converge_step'
p593
I17
sS'final_number_of_components'
p594
I15
sS'sys.argv'
p595
(lp596
S'original_first_proposal.py'
p597
asS'k'
I10
sS'L'
I100
sS'N_perp_ess'
p598
I10000
sS'N_adapt'
p599
I500
sS'N_burn_in'
p600
I1000
sS'critical_r'
p601
F2
sS'N_MCMC'
p602
I20000
sS'ess'
p603
g18
(g20
S'\xf9\xb3\xac])\xfa\xe3?'
tRp604
sS'perplexity'
p605
g18
(g20
S'\xfcg\xea\x14V\xe1\xe6?'
tRp606
sS'number_of_chain_groups'
p607
I1
sS'K_g'
p608
I15
sa(dp609
S'kill_in_hc'
p610
I01
sS'dim'
p611
I10
sS'random_seed'
p612
I3032428261615509726
sS'hc_converge_step'
p613
I15
sS'final_number_of_components'
p614
I15
sS'sys.argv'
p615
(lp616
S'original_first_proposal.py'
p617
asS'k'
I10
sS'number_of_chain_groups'
p618
I1
sS'L'
I100
sS'N_perp_ess'
p619
I10000
sS'N_adapt'
p620
I500
sS'N_burn_in'
p621
I1000
sS'critical_r'
p622
F2
sS'N_MCMC'
p623
I20000
sS'perplexity'
p624
g18
(g20
S'=.\xe8\x89O\x80\xe6?'
tRp625
sS'ess'
p626
g18
(g20
S'\x9cvk-"`\xe2?'
tRp627
sS'K_g'
p628
I15
sa(dp629
S'kill_in_hc'
p630
I01
sS'dim'
p631
I10
sS'random_seed'
p632
I4154838438920130625
sS'hc_converge_step'
p633
I18
sS'final_number_of_components'
p634
I15
sS'sys.argv'
p635
(lp636
S'original_first_proposal.py'
p637
asS'k'
I10
sS'L'
I100
sS'N_perp_ess'
p638
I10000
sS'N_adapt'
p639
I500
sS'N_burn_in'
p640
I1000
sS'critical_r'
p641
F2
sS'N_MCMC'
p642
I20000
sS'ess'
p643
g18
(g20
S't\xc4N30\xc6\xdf?'
tRp644
sS'perplexity'
p645
g18
(g20
S'"\x14\x19\xf1l\xd6\xe5?'
tRp646
sS'number_of_chain_groups'
p647
I1
sS'K_g'
p648
I15
sa(dp649
S'kill_in_hc'
p650
I01
sS'dim'
p651
I10
sS'random_seed'
p652
I3700767187488280411
sS'hc_converge_step'
p653
I22
sS'final_number_of_components'
p654
I15
sS'sys.argv'
p655
(lp656
S'original_first_proposal.py'
p657
asS'k'
I10
sS'number_of_chain_groups'
p658
I1
sS'L'
I100
sS'N_perp_ess'
p659
I10000
sS'N_adapt'
p660
I500
sS'N_burn_in'
p661
I1000
sS'critical_r'
p662
F2
sS'N_MCMC'
p663
I20000
sS'perplexity'
p664
g18
(g20
S'\xf0_\xe30\xe9\xbc\xe7?'
tRp665
sS'ess'
p666
g18
(g20
S'\xdc\xee\x05\x08L$\xe2?'
tRp667
sS'K_g'
p668
I15
sa(dp669
S'kill_in_hc'
p670
I01
sS'dim'
p671
I10
sS'random_seed'
p672
I2386418790570161984
sS'hc_converge_step'
p673
I18
sS'final_number_of_components'
p674
I15
sS'sys.argv'
p675
(lp676
S'original_first_proposal.py'
p677
asS'k'
I10
sS'L'
I100
sS'N_perp_ess'
p678
I10000
sS'N_adapt'
p679
I500
sS'N_burn_in'
p680
I1000
sS'critical_r'
p681
F2
sS'N_MCMC'
p682
I20000
sS'ess'
p683
g18
(g20
S'\xc3\xbfa\xa0\x8f.\xe3?'
tRp684
sS'perplexity'
p685
g18
(g20
S'\xc5\xbc\xfcj8\xf3\xe5?'
tRp686
sS'number_of_chain_groups'
p687
I1
sS'K_g'
p688
I15
sa(dp689
S'kill_in_hc'
p690
I01
sS'dim'
p691
I10
sS'random_seed'
p692
I3559866012096770843
sS'hc_converge_step'
p693
I19
sS'final_number_of_components'
p694
I15
sS'sys.argv'
p695
(lp696
S'original_first_proposal.py'
p697
asS'k'
I10
sS'number_of_chain_groups'
p698
I1
sS'L'
I100
sS'N_perp_ess'
p699
I10000
sS'N_adapt'
p700
I500
sS'N_burn_in'
p701
I1000
sS'critical_r'
p702
F2
sS'N_MCMC'
p703
I20000
sS'perplexity'
p704
g18
(g20
S'\xdd\x9dTxM\x87\xe6?'
tRp705
sS'ess'
p706
g18
(g20
S'>\x0c{\xf8\xea\x02\xe3?'
tRp707
sS'K_g'
p708
I15
sa(dp709
S'kill_in_hc'
p710
I01
sS'dim'
p711
I10
sS'random_seed'
p712
I1630491468039393391
sS'hc_converge_step'
p713
I18
sS'final_number_of_components'
p714
I15
sS'sys.argv'
p715
(lp716
S'original_first_proposal.py'
p717
asS'k'
I10
sS'L'
I100
sS'N_perp_ess'
p718
I10000
sS'N_adapt'
p719
I500
sS'N_burn_in'
p720
I1000
sS'critical_r'
p721
F2
sS'N_MCMC'
p722
I20000
sS'ess'
p723
g18
(g20
S'\xa1"y\x81\xdb\xa1\xe1?'
tRp724
sS'perplexity'
p725
g18
(g20
S'\xd0B+$-w\xe5?'
tRp726
sS'number_of_chain_groups'
p727
I1
sS'K_g'
p728
I15
sa(dp729
S'kill_in_hc'
p730
I01
sS'dim'
p731
I10
sS'random_seed'
p732
I2934072671287343268
sS'hc_converge_step'
p733
I20
sS'final_number_of_components'
p734
I15
sS'sys.argv'
p735
(lp736
S'original_first_proposal.py'
p737
asS'k'
I10
sS'number_of_chain_groups'
p738
I1
sS'L'
I100
sS'N_perp_ess'
p739
I10000
sS'N_adapt'
p740
I500
sS'N_burn_in'
p741
I1000
sS'critical_r'
p742
F2
sS'N_MCMC'
p743
I20000
sS'perplexity'
p744
g18
(g20
S'\x06\x005$\x08\x96\xe6?'
tRp745
sS'ess'
p746
g18
(g20
S'\xe7\x91.\x9e\x1b\x07\xe3?'
tRp747
sS'K_g'
p748
I15
sa(dp749
S'kill_in_hc'
p750
I01
sS'dim'
p751
I10
sS'random_seed'
p752
I4171088253046103256
sS'hc_converge_step'
p753
I20
sS'final_number_of_components'
p754
I15
sS'sys.argv'
p755
(lp756
S'original_first_proposal.py'
p757
asS'k'
I10
sS'L'
I100
sS'N_perp_ess'
p758
I10000
sS'N_adapt'
p759
I500
sS'N_burn_in'
p760
I1000
sS'critical_r'
p761
F2
sS'N_MCMC'
p762
I20000
sS'ess'
p763
g18
(g20
S'\x90\x8dU\xd2?\x02\xdb?'
tRp764
sS'perplexity'
p765
g18
(g20
S'\xbb\x0f \xd6\xdf#\xe6?'
tRp766
sS'number_of_chain_groups'
p767
I1
sS'K_g'
p768
I15
sa(dp769
S'N_max_vb'
p770
I1000
sS'dim'
p771
I10
sS'random_seed'
p772
I1249265111649563729
sS'final_number_of_components'
p773
I5
sS'sys.argv'
p774
(lp775
S'pure_variational_first_proposal.py'
p776
asS'k'
I10
sS'abandon_weights'
p777
I00
sS'vb_rel_tol'
p778
F1e-10
sS'N_adapt'
p779
I500
sS'N_burn_in'
p780
I1000
sS'critical_r'
p781
F2
sS'N_MCMC'
p782
I20000
sS'vb_initialization'
p783
S'long_patches'
p784
sS'N_perp_ess'
p785
I10000
sS'vb_converge_step'
p786
I391
sS'perplexity'
p787
g18
(g20
S'\x00\x17\x9c\x81\x9f\x02\xed?'
tRp788
sS'ess'
p789
g18
(g20
S'\x84>\x19\x19\xbe&\xe8?'
tRp790
sS'vb_abs_tol'
p791
F1.0000000000000001e-05
sS'vb_prune'
p792
F666.66666666666663
sS'K_g'
p793
I15
sS'N_thin'
p794
I10
sa(dp795
S'N_max_vb'
p796
I1000
sS'dim'
p797
I10
sS'random_seed'
p798
I4334281372391243452
sS'final_number_of_components'
p799
I5
sS'sys.argv'
p800
(lp801
S'pure_variational_first_proposal.py'
p802
asS'k'
I10
sS'critical_r'
p803
F2
sS'vb_rel_tol'
p804
F1e-10
sS'vb_prune'
p805
F666.66666666666663
sS'N_adapt'
p806
I500
sS'N_burn_in'
p807
I1000
sS'abandon_weights'
p808
I00
sS'N_MCMC'
p809
I20000
sS'N_perp_ess'
p810
I10000
sS'ess'
p811
g18
(g20
S'\xd5o\xb1,Cr\xeb?'
tRp812
sS'perplexity'
p813
g18
(g20
S'\x99\x06O\xbe\xbc\xe9\xed?'
tRp814
sS'vb_converge_step'
p815
I395
sS'vb_abs_tol'
p816
F1.0000000000000001e-05
sS'vb_initialization'
p817
S'long_patches'
p818
sS'K_g'
p819
I15
sS'N_thin'
p820
I10
sa(dp821
S'N_max_vb'
p822
I1000
sS'dim'
p823
I10
sS'random_seed'
p824
I3634112997760769010
sS'final_number_of_components'
p825
I5
sS'sys.argv'
p826
(lp827
S'pure_variational_first_proposal.py'
p828
asS'k'
I10
sS'abandon_weights'
p829
I00
sS'vb_rel_tol'
p830
F1e-10
sS'N_adapt'
p831
I500
sS'N_burn_in'
p832
I1000
sS'critical_r'
p833
F2
sS'N_MCMC'
p834
I20000
sS'vb_initialization'
p835
S'long_patches'
p836
sS'N_perp_ess'
p837
I10000
sS'vb_converge_step'
p838
I508
sS'perplexity'
p839
g18
(g20
S'R\xc5\x90\x13\xe5Y\xed?'
tRp840
sS'ess'
p841
g18
(g20
S's\n\x1a\x98\xa7g\xea?'
tRp842
sS'vb_abs_tol'
p843
F1.0000000000000001e-05
sS'vb_prune'
p844
F666.66666666666663
sS'K_g'
p845
I15
sS'N_thin'
p846
I10
sa(dp847
S'N_max_vb'
p848
I1000
sS'dim'
p849
I10
sS'random_seed'
p850
I2529889869427320607
sS'final_number_of_components'
p851
I4
sS'sys.argv'
p852
(lp853
S'pure_variational_first_proposal.py'
p854
asS'k'
I10
sS'critical_r'
p855
F2
sS'vb_rel_tol'
p856
F1e-10
sS'vb_prune'
p857
F666.66666666666663
sS'N_adapt'
p858
I500
sS'N_burn_in'
p859
I1000
sS'abandon_weights'
p860
I00
sS'N_MCMC'
p861
I20000
sS'N_perp_ess'
p862
I10000
sS'ess'
p863
g18
(g20
S'\xd8\xf6\x9c\xde,\xd3\xe3?'
tRp864
sS'perplexity'
p865
g18
(g20
S'\x8c\xc3N\xe5\x1eA\xec?'
tRp866
sS'vb_converge_step'
p867
I578
sS'vb_abs_tol'
p868
F1.0000000000000001e-05
sS'vb_initialization'
p869
S'long_patches'
p870
sS'K_g'
p871
I15
sS'N_thin'
p872
I10
sa(dp873
S'N_max_vb'
p874
I1000
sS'dim'
p875
I10
sS'random_seed'
p876
I864465684531324272
sS'final_number_of_components'
p877
I5
sS'sys.argv'
p878
(lp879
S'pure_variational_first_proposal.py'
p880
asS'k'
I10
sS'abandon_weights'
p881
I00
sS'vb_rel_tol'
p882
F1e-10
sS'N_adapt'
p883
I500
sS'N_burn_in'
p884
I1000
sS'critical_r'
p885
F2
sS'N_MCMC'
p886
I20000
sS'vb_initialization'
p887
S'long_patches'
p888
sS'N_perp_ess'
p889
I10000
sS'vb_converge_step'
p890
I573
sS'perplexity'
p891
g18
(g20
S';\xef\x80\x06\x02\x92\xed?'
tRp892
sS'ess'
p893
g18
(g20
S'fq\x9b\xb7v%\xeb?'
tRp894
sS'vb_abs_tol'
p895
F1.0000000000000001e-05
sS'vb_prune'
p896
F666.66666666666663
sS'K_g'
p897
I15
sS'N_thin'
p898
I10
sa(dp899
S'N_max_vb'
p900
I1000
sS'dim'
p901
I10
sS'random_seed'
p902
I1042515984295084392
sS'final_number_of_components'
p903
I6
sS'sys.argv'
p904
(lp905
S'pure_variational_first_proposal.py'
p906
asS'k'
I10
sS'critical_r'
p907
F2
sS'vb_rel_tol'
p908
F1e-10
sS'vb_prune'
p909
F666.66666666666663
sS'N_adapt'
p910
I500
sS'N_burn_in'
p911
I1000
sS'abandon_weights'
p912
I00
sS'N_MCMC'
p913
I20000
sS'N_perp_ess'
p914
I10000
sS'ess'
p915
g18
(g20
S'\x999\x96\x84\xf1Q\xe1?'
tRp916
sS'perplexity'
p917
g18
(g20
S'\xcf\xbeJ\xa8\xe7\xf1\xec?'
tRp918
sS'vb_converge_step'
p919
I560
sS'vb_abs_tol'
p920
F1.0000000000000001e-05
sS'vb_initialization'
p921
S'long_patches'
p922
sS'K_g'
p923
I15
sS'N_thin'
p924
I10
sa(dp925
S'N_max_vb'
p926
I1000
sS'dim'
p927
I10
sS'random_seed'
p928
I631804379016182726
sS'final_number_of_components'
p929
I4
sS'sys.argv'
p930
(lp931
S'pure_variational_first_proposal.py'
p932
asS'k'
I10
sS'abandon_weights'
p933
I00
sS'vb_rel_tol'
p934
F1e-10
sS'N_adapt'
p935
I500
sS'N_burn_in'
p936
I1000
sS'critical_r'
p937
F2
sS'N_MCMC'
p938
I20000
sS'vb_initialization'
p939
S'long_patches'
p940
sS'N_perp_ess'
p941
I10000
sS'vb_converge_step'
p942
I660
sS'perplexity'
p943
g18
(g20
S'\x10\x1dz\x98<\xff\xec?'
tRp944
sS'ess'
p945
g18
(g20
S'T\x8c\x0f@|\x04\xea?'
tRp946
sS'vb_abs_tol'
p947
F1.0000000000000001e-05
sS'vb_prune'
p948
F666.66666666666663
sS'K_g'
p949
I15
sS'N_thin'
p950
I10
sa(dp951
S'N_max_vb'
p952
I1000
sS'dim'
p953
I10
sS'random_seed'
p954
I555097360009856105
sS'final_number_of_components'
p955
I5
sS'sys.argv'
p956
(lp957
S'pure_variational_first_proposal.py'
p958
asS'k'
I10
sS'critical_r'
p959
F2
sS'vb_rel_tol'
p960
F1e-10
sS'vb_prune'
p961
F666.66666666666663
sS'N_adapt'
p962
I500
sS'N_burn_in'
p963
I1000
sS'abandon_weights'
p964
I00
sS'N_MCMC'
p965
I20000
sS'N_perp_ess'
p966
I10000
sS'ess'
p967
g18
(g20
S'\xf9\xd9\xe7\x90\xe3\x8e\xeb?'
tRp968
sS'perplexity'
p969
g18
(g20
S'\x05\xfc\x1cLe#\xee?'
tRp970
sS'vb_converge_step'
p971
I741
sS'vb_abs_tol'
p972
F1.0000000000000001e-05
sS'vb_initialization'
p973
S'long_patches'
p974
sS'K_g'
p975
I15
sS'N_thin'
p976
I10
sa(dp977
S'N_max_vb'
p978
I1000
sS'dim'
p979
I10
sS'random_seed'
p980
I1781003361082581548
sS'final_number_of_components'
p981
I5
sS'sys.argv'
p982
(lp983
S'pure_variational_first_proposal.py'
p984
asS'k'
I10
sS'abandon_weights'
p985
I00
sS'vb_rel_tol'
p986
F1e-10
sS'N_adapt'
p987
I500
sS'N_burn_in'
p988
I1000
sS'critical_r'
p989
F2
sS'N_MCMC'
p990
I20000
sS'vb_initialization'
p991
S'long_patches'
p992
sS'N_perp_ess'
p993
I10000
sS'vb_converge_step'
p994
NsS'perplexity'
p995
g18
(g20
S'\x0b\xccB\xa2\xac\x8e\xed?'
tRp996
sS'ess'
p997
g18
(g20
S'\x1c.\x14{\xf5d\xea?'
tRp998
sS'vb_abs_tol'
p999
F1.0000000000000001e-05
sS'vb_prune'
p1000
F666.66666666666663
sS'K_g'
p1001
I15
sS'N_thin'
p1002
I10
sa(dp1003
S'N_max_vb'
p1004
I1000
sS'dim'
p1005
I10
sS'random_seed'
p1006
I1745574299744771837
sS'final_number_of_components'
p1007
I5
sS'sys.argv'
p1008
(lp1009
S'pure_variational_first_proposal.py'
p1010
asS'k'
I10
sS'critical_r'
p1011
F2
sS'vb_rel_tol'
p1012
F1e-10
sS'vb_prune'
p1013
F666.66666666666663
sS'N_adapt'
p1014
I500
sS'N_burn_in'
p1015
I1000
sS'abandon_weights'
p1016
I00
sS'N_MCMC'
p1017
I20000
sS'N_perp_ess'
p1018
I10000
sS'ess'
p1019
g18
(g20
S'd&]\xfd\x0f"\xeb?'
tRp1020
sS'perplexity'
p1021
g18
(g20
S'\x13\xa1\xadGQ\xf0\xed?'
tRp1022
sS'vb_converge_step'
p1023
I932
sS'vb_abs_tol'
p1024
F1.0000000000000001e-05
sS'vb_initialization'
p1025
S'long_patches'
p1026
sS'K_g'
p1027
I15
sS'N_thin'
p1028
I10
sa(dp1029
S'kill_in_hc'
p1030
I01
sS'dim'
p1031
I20
sS'random_seed'
p1032
I315998010527831730
sS'hc_converge_step'
p1033
I12
sS'final_number_of_components'
p1034
I25
sS'sys.argv'
p1035
(lp1036
S'original_first_proposal.py'
p1037
asS'k'
I10
sS'number_of_chain_groups'
p1038
I1
sS'L'
I100
sS'N_perp_ess'
p1039
I10000
sS'N_adapt'
p1040
I500
sS'N_burn_in'
p1041
I1000
sS'critical_r'
p1042
F2
sS'N_MCMC'
p1043
I20000
sS'perplexity'
p1044
g18
(g20
S'\xae\xefa{\x13[\xe0?'
tRp1045
sS'ess'
p1046
g18
(g20
S'=\x1doB}T\xcd?'
tRp1047
sS'K_g'
p1048
I25
sa(dp1049
S'kill_in_hc'
p1050
I01
sS'dim'
p1051
I20
sS'random_seed'
p1052
I3601151952125480107
sS'hc_converge_step'
p1053
I11
sS'final_number_of_components'
p1054
I25
sS'sys.argv'
p1055
(lp1056
S'original_first_proposal.py'
p1057
asS'k'
I10
sS'L'
I100
sS'N_perp_ess'
p1058
I10000
sS'N_adapt'
p1059
I500
sS'N_burn_in'
p1060
I1000
sS'critical_r'
p1061
F2
sS'N_MCMC'
p1062
I20000
sS'ess'
p1063
g18
(g20
S'/#56\xdc\xa9\xd6?'
tRp1064
sS'perplexity'
p1065
g18
(g20
S'\x1b~\xc0\x03\xf7\x89\xe2?'
tRp1066
sS'number_of_chain_groups'
p1067
I1
sS'K_g'
p1068
I25
sa(dp1069
S'kill_in_hc'
p1070
I01
sS'dim'
p1071
I20
sS'random_seed'
p1072
I1368882936046273648
sS'hc_converge_step'
p1073
I13
sS'final_number_of_components'
p1074
I25
sS'sys.argv'
p1075
(lp1076
S'original_first_proposal.py'
p1077
asS'k'
I10
sS'number_of_chain_groups'
p1078
I1
sS'L'
I100
sS'N_perp_ess'
p1079
I10000
sS'N_adapt'
p1080
I500
sS'N_burn_in'
p1081
I1000
sS'critical_r'
p1082
F2
sS'N_MCMC'
p1083
I20000
sS'perplexity'
p1084
g18
(g20
S'\x01TM\x89=\xa8\xe0?'
tRp1085
sS'ess'
p1086
g18
(g20
S'\xafC\xb8\xa5\x064\xd2?'
tRp1087
sS'K_g'
p1088
I25
sa(dp1089
S'kill_in_hc'
p1090
I01
sS'dim'
p1091
I20
sS'random_seed'
p1092
I4057967110754375377
sS'hc_converge_step'
p1093
I11
sS'final_number_of_components'
p1094
I25
sS'sys.argv'
p1095
(lp1096
S'original_first_proposal.py'
p1097
asS'k'
I10
sS'L'
I100
sS'N_perp_ess'
p1098
I10000
sS'N_adapt'
p1099
I500
sS'N_burn_in'
p1100
I1000
sS'critical_r'
p1101
F2
sS'N_MCMC'
p1102
I20000
sS'ess'
p1103
g18
(g20
S'\xe8}\x0f\x1cw\xe1\xc1?'
tRp1104
sS'perplexity'
p1105
g18
(g20
S'\x889\x10!\xa2\x12\xde?'
tRp1106
sS'number_of_chain_groups'
p1107
I1
sS'K_g'
p1108
I25
sa(dp1109
S'kill_in_hc'
p1110
I01
sS'dim'
p1111
I20
sS'random_seed'
p1112
I1379598964047149283
sS'hc_converge_step'
p1113
I11
sS'final_number_of_components'
p1114
I25
sS'sys.argv'
p1115
(lp1116
S'original_first_proposal.py'
p1117
asS'k'
I10
sS'number_of_chain_groups'
p1118
I1
sS'L'
I100
sS'N_perp_ess'
p1119
I10000
sS'N_adapt'
p1120
I500
sS'N_burn_in'
p1121
I1000
sS'critical_r'
p1122
F2
sS'N_MCMC'
p1123
I20000
sS'perplexity'
p1124
g18
(g20
S'~\xe8q\xa1*\x01\xdc?'
tRp1125
sS'ess'
p1126
g18
(g20
S'x\x14<\xc6\xb2\xc9\xb6?'
tRp1127
sS'K_g'
p1128
I25
sa(dp1129
S'kill_in_hc'
p1130
I01
sS'dim'
p1131
I20
sS'random_seed'
p1132
I4045806679627937273
sS'hc_converge_step'
p1133
I12
sS'final_number_of_components'
p1134
I25
sS'sys.argv'
p1135
(lp1136
S'original_first_proposal.py'
p1137
asS'k'
I10
sS'L'
I100
sS'N_perp_ess'
p1138
I10000
sS'N_adapt'
p1139
I500
sS'N_burn_in'
p1140
I1000
sS'critical_r'
p1141
F2
sS'N_MCMC'
p1142
I20000
sS'ess'
p1143
g18
(g20
S"\x85\xcbh\xfc'\xf6\xc7?"
tRp1144
sS'perplexity'
p1145
g18
(g20
S'\xdeg\xd0\x05\xac\xe5\xe0?'
tRp1146
sS'number_of_chain_groups'
p1147
I1
sS'K_g'
p1148
I25
sa(dp1149
S'kill_in_hc'
p1150
I01
sS'dim'
p1151
I20
sS'random_seed'
p1152
I3947975123201964136
sS'hc_converge_step'
p1153
I13
sS'final_number_of_components'
p1154
I25
sS'sys.argv'
p1155
(lp1156
S'original_first_proposal.py'
p1157
asS'k'
I10
sS'number_of_chain_groups'
p1158
I1
sS'L'
I100
sS'N_perp_ess'
p1159
I10000
sS'N_adapt'
p1160
I500
sS'N_burn_in'
p1161
I1000
sS'critical_r'
p1162
F2
sS'N_MCMC'
p1163
I20000
sS'perplexity'
p1164
g18
(g20
S'8^\xbc\x03\xe5\x02\xe0?'
tRp1165
sS'ess'
p1166
g18
(g20
S'Oh\x1c\x14[\x1e\xca?'
tRp1167
sS'K_g'
p1168
I25
sa(dp1169
S'kill_in_hc'
p1170
I01
sS'dim'
p1171
I20
sS'random_seed'
p1172
I1851567910691574957
sS'hc_converge_step'
p1173
I13
sS'final_number_of_components'
p1174
I25
sS'sys.argv'
p1175
(lp1176
S'original_first_proposal.py'
p1177
asS'k'
I10
sS'L'
I100
sS'N_perp_ess'
p1178
I10000
sS'N_adapt'
p1179
I500
sS'N_burn_in'
p1180
I1000
sS'critical_r'
p1181
F2
sS'N_MCMC'
p1182
I20000
sS'ess'
p1183
g18
(g20
S'{\x1f\xd6\xcaT\xda\xc8?'
tRp1184
sS'perplexity'
p1185
g18
(g20
S'2\xf75\xb7Q\x10\xdf?'
tRp1186
sS'number_of_chain_groups'
p1187
I1
sS'K_g'
p1188
I25
sa(dp1189
S'kill_in_hc'
p1190
I01
sS'dim'
p1191
I20
sS'random_seed'
p1192
I1673326870599720190
sS'hc_converge_step'
p1193
I9
sS'final_number_of_components'
p1194
I50
sS'sys.argv'
p1195
(lp1196
S'original_first_proposal.py'
p1197
asS'k'
I10
sS'number_of_chain_groups'
p1198
I2
sS'L'
I100
sS'N_perp_ess'
p1199
I10000
sS'N_adapt'
p1200
I500
sS'N_burn_in'
p1201
I1000
sS'critical_r'
p1202
F2
sS'N_MCMC'
p1203
I20000
sS'perplexity'
p1204
g18
(g20
S'(\xa2#6\xf3\xf9\xd2?'
tRp1205
sS'ess'
p1206
g18
(g20
S'\xfe\x06-\x11\x0f\xdb\xb3?'
tRp1207
sS'K_g'
p1208
I25
sa(dp1209
S'kill_in_hc'
p1210
I01
sS'dim'
p1211
I20
sS'random_seed'
p1212
I817134317983462244
sS'hc_converge_step'
p1213
I10
sS'final_number_of_components'
p1214
I50
sS'sys.argv'
p1215
(lp1216
S'original_first_proposal.py'
p1217
asS'k'
I10
sS'L'
I100
sS'N_perp_ess'
p1218
I10000
sS'N_adapt'
p1219
I500
sS'N_burn_in'
p1220
I1000
sS'critical_r'
p1221
F2
sS'N_MCMC'
p1222
I20000
sS'ess'
p1223
g18
(g20
S'\x8b\xe4\x0c\xd7\xde5\xc2?'
tRp1224
sS'perplexity'
p1225
g18
(g20
S"5\xe5'Zi\xa7\xd5?"
tRp1226
sS'number_of_chain_groups'
p1227
I2
sS'K_g'
p1228
I25
sa(dp1229
S'N_max_vb'
p1230
I1000
sS'dim'
p1231
I20
sS'random_seed'
p1232
I3186398128832290780
sS'final_number_of_components'
p1233
I4
sS'sys.argv'
p1234
(lp1235
S'pure_variational_first_proposal.py'
p1236
asS'k'
I10
sS'abandon_weights'
p1237
I00
sS'vb_rel_tol'
p1238
F1e-10
sS'N_adapt'
p1239
I500
sS'N_burn_in'
p1240
I1000
sS'critical_r'
p1241
F2
sS'N_MCMC'
p1242
I20000
sS'vb_initialization'
p1243
S'long_patches'
p1244
sS'N_perp_ess'
p1245
I10000
sS'vb_converge_step'
p1246
I301
sS'perplexity'
p1247
g18
(g20
S'\xa1F*\x01U\xe0\xdd?'
tRp1248
sS'ess'
p1249
g18
(g20
S'K\x19\xa6\xc6\x1b2\x85?'
tRp1250
sS'vb_abs_tol'
p1251
F1.0000000000000001e-05
sS'vb_prune'
p1252
F400
sS'K_g'
p1253
I25
sS'N_thin'
p1254
I10
sa(dp1255
S'N_max_vb'
p1256
I1000
sS'dim'
p1257
I20
sS'random_seed'
p1258
I2125960887042891217
sS'final_number_of_components'
p1259
I4
sS'sys.argv'
p1260
(lp1261
S'pure_variational_first_proposal.py'
p1262
asS'k'
I10
sS'critical_r'
p1263
F2
sS'vb_rel_tol'
p1264
F1e-10
sS'vb_prune'
p1265
F400
sS'N_adapt'
p1266
I500
sS'N_burn_in'
p1267
I1000
sS'abandon_weights'
p1268
I00
sS'N_MCMC'
p1269
I20000
sS'N_perp_ess'
p1270
I10000
sS'ess'
p1271
g18
(g20
S'\xde\xe8GV\xab#\xe1?'
tRp1272
sS'perplexity'
p1273
g18
(g20
S'\x1b3vk\x02(\xea?'
tRp1274
sS'vb_converge_step'
p1275
I304
sS'vb_abs_tol'
p1276
F1.0000000000000001e-05
sS'vb_initialization'
p1277
S'long_patches'
p1278
sS'K_g'
p1279
I25
sS'N_thin'
p1280
I10
sa(dp1281
S'N_max_vb'
p1282
I1000
sS'dim'
p1283
I20
sS'random_seed'
p1284
I3157971071913867076
sS'final_number_of_components'
p1285
I4
sS'sys.argv'
p1286
(lp1287
S'pure_variational_first_proposal.py'
p1288
asS'k'
I10
sS'abandon_weights'
p1289
I00
sS'vb_rel_tol'
p1290
F1e-10
sS'N_adapt'
p1291
I500
sS'N_burn_in'
p1292
I1000
sS'critical_r'
p1293
F2
sS'N_MCMC'
p1294
I20000
sS'vb_initialization'
p1295
S'long_patches'
p1296
sS'N_perp_ess'
p1297
I10000
sS'vb_converge_step'
p1298
I340
sS'perplexity'
p1299
g18
(g20
S'\xa5A:\xc8\xae*\xe9?'
tRp1300
sS'ess'
p1301
g18
(g20
S'\xe3)\xed \xe5\x1f\xdf?'
tRp1302
sS'vb_abs_tol'
p1303
F1.0000000000000001e-05
sS'vb_prune'
p1304
F400
sS'K_g'
p1305
I25
sS'N_thin'
p1306
I10
sa(dp1307
S'N_max_vb'
p1308
I1000
sS'dim'
p1309
I20
sS'random_seed'
p1310
I1092959829341213131
sS'final_number_of_components'
p1311
I5
sS'sys.argv'
p1312
(lp1313
S'pure_variational_first_proposal.py'
p1314
asS'k'
I10
sS'critical_r'
p1315
F2
sS'vb_rel_tol'
p1316
F1e-10
sS'vb_prune'
p1317
F400
sS'N_adapt'
p1318
I500
sS'N_burn_in'
p1319
I1000
sS'abandon_weights'
p1320
I00
sS'N_MCMC'
p1321
I20000
sS'N_perp_ess'
p1322
I10000
sS'ess'
p1323
g18
(g20
S'\xd8\xba\xc4\xc7-u\xe0?'
tRp1324
sS'perplexity'
p1325
g18
(g20
S'\xa1\x87\x13\xae\xe0\xff\xe9?'
tRp1326
sS'vb_converge_step'
p1327
I411
sS'vb_abs_tol'
p1328
F1.0000000000000001e-05
sS'vb_initialization'
p1329
S'long_patches'
p1330
sS'K_g'
p1331
I25
sS'N_thin'
p1332
I10
sa(dp1333
S'N_max_vb'
p1334
I1000
sS'dim'
p1335
I20
sS'random_seed'
p1336
I3588580123276335794
sS'final_number_of_components'
p1337
I5
sS'sys.argv'
p1338
(lp1339
S'pure_variational_first_proposal.py'
p1340
asS'k'
I10
sS'abandon_weights'
p1341
I00
sS'vb_rel_tol'
p1342
F1e-10
sS'N_adapt'
p1343
I500
sS'N_burn_in'
p1344
I1000
sS'critical_r'
p1345
F2
sS'N_MCMC'
p1346
I20000
sS'vb_initialization'
p1347
S'long_patches'
p1348
sS'N_perp_ess'
p1349
I10000
sS'vb_converge_step'
p1350
I363
sS'perplexity'
p1351
g18
(g20
S'F\xe8x\xc5\x84R\xe9?'
tRp1352
sS'ess'
p1353
g18
(g20
S'\xa3\xd1\xe9\xd6\x08R\xda?'
tRp1354
sS'vb_abs_tol'
p1355
F1.0000000000000001e-05
sS'vb_prune'
p1356
F400
sS'K_g'
p1357
I25
sS'N_thin'
p1358
I10
sa(dp1359
S'N_max_vb'
p1360
I1000
sS'dim'
p1361
I20
sS'random_seed'
p1362
I4033956891938069141
sS'final_number_of_components'
p1363
I5
sS'sys.argv'
p1364
(lp1365
S'pure_variational_first_proposal.py'
p1366
asS'k'
I10
sS'critical_r'
p1367
F2
sS'vb_rel_tol'
p1368
F1e-10
sS'vb_prune'
p1369
F400
sS'N_adapt'
p1370
I500
sS'N_burn_in'
p1371
I1000
sS'abandon_weights'
p1372
I00
sS'N_MCMC'
p1373
I20000
sS'N_perp_ess'
p1374
I10000
sS'ess'
p1375
g18
(g20
S'i\x82\xd56\xc6\xb5\xdf?'
tRp1376
sS'perplexity'
p1377
g18
(g20
S'\x17;\xb3\xdc\xccB\xe9?'
tRp1378
sS'vb_converge_step'
p1379
I412
sS'vb_abs_tol'
p1380
F1.0000000000000001e-05
sS'vb_initialization'
p1381
S'long_patches'
p1382
sS'K_g'
p1383
I25
sS'N_thin'
p1384
I10
sa(dp1385
S'N_max_vb'
p1386
I1000
sS'dim'
p1387
I20
sS'random_seed'
p1388
I3898082137742000722
sS'final_number_of_components'
p1389
I5
sS'sys.argv'
p1390
(lp1391
S'pure_variational_first_proposal.py'
p1392
asS'k'
I10
sS'abandon_weights'
p1393
I00
sS'vb_rel_tol'
p1394
F1e-10
sS'N_adapt'
p1395
I500
sS'N_burn_in'
p1396
I1000
sS'critical_r'
p1397
F2
sS'N_MCMC'
p1398
I20000
sS'vb_initialization'
p1399
S'long_patches'
p1400
sS'N_perp_ess'
p1401
I10000
sS'vb_converge_step'
p1402
I350
sS'perplexity'
p1403
g18
(g20
S'\xb5\xb2<\xe0\xbd\xc1\xc6?'
tRp1404
sS'ess'
p1405
g18
(g20
S'S\x92Ny\xc29_?'
tRp1406
sS'vb_abs_tol'
p1407
F1.0000000000000001e-05
sS'vb_prune'
p1408
F200
sS'K_g'
p1409
I25
sS'N_thin'
p1410
I10
sa(dp1411
S'N_max_vb'
p1412
I1000
sS'dim'
p1413
I20
sS'random_seed'
p1414
I3680217661305315850
sS'final_number_of_components'
p1415
I5
sS'sys.argv'
p1416
(lp1417
S'pure_variational_first_proposal.py'
p1418
asS'k'
I10
sS'critical_r'
p1419
F2
sS'vb_rel_tol'
p1420
F1e-10
sS'vb_prune'
p1421
F400
sS'N_adapt'
p1422
I500
sS'N_burn_in'
p1423
I1000
sS'abandon_weights'
p1424
I00
sS'N_MCMC'
p1425
I20000
sS'N_perp_ess'
p1426
I10000
sS'ess'
p1427
g18
(g20
S'U\xb0\x8a\x08F\x9c\xd5?'
tRp1428
sS'perplexity'
p1429
g18
(g20
S"\xe2\xb8)='\x7f\xe8?"
tRp1430
sS'vb_converge_step'
p1431
I762
sS'vb_abs_tol'
p1432
F1.0000000000000001e-05
sS'vb_initialization'
p1433
S'long_patches'
p1434
sS'K_g'
p1435
I25
sS'N_thin'
p1436
I10
sa(dp1437
S'N_max_vb'
p1438
I1000
sS'dim'
p1439
I20
sS'random_seed'
p1440
I1697643658079998502
sS'final_number_of_components'
p1441
I5
sS'sys.argv'
p1442
(lp1443
S'pure_variational_first_proposal.py'
p1444
asS'k'
I10
sS'abandon_weights'
p1445
I00
sS'vb_rel_tol'
p1446
F1e-10
sS'N_adapt'
p1447
I500
sS'N_burn_in'
p1448
I1000
sS'critical_r'
p1449
F2
sS'N_MCMC'
p1450
I20000
sS'vb_initialization'
p1451
S'long_patches'
p1452
sS'N_perp_ess'
p1453
I10000
sS'vb_converge_step'
p1454
I674
sS'perplexity'
p1455
g18
(g20
S'D;;d\x94\x1c\xe6?'
tRp1456
sS'ess'
p1457
g18
(g20
S'q@\xe4K\xb7$\xc5?'
tRp1458
sS'vb_abs_tol'
p1459
F1.0000000000000001e-05
sS'vb_prune'
p1460
F400
sS'K_g'
p1461
I25
sS'N_thin'
p1462
I10
sa(dp1463
S'N_max_vb'
p1464
I1000
sS'dim'
p1465
I20
sS'random_seed'
p1466
I1014693705902227332
sS'final_number_of_components'
p1467
I6
sS'sys.argv'
p1468
(lp1469
S'pure_variational_first_proposal.py'
p1470
asS'k'
I10
sS'critical_r'
p1471
F2
sS'vb_rel_tol'
p1472
F1e-10
sS'vb_prune'
p1473
F200
sS'N_adapt'
p1474
I500
sS'N_burn_in'
p1475
I1000
sS'abandon_weights'
p1476
I00
sS'N_MCMC'
p1477
I20000
sS'N_perp_ess'
p1478
I10000
sS'ess'
p1479
g18
(g20
S'\x16i\x06v,)\xd5?'
tRp1480
sS'perplexity'
p1481
g18
(g20
S'\xbb\xb5\x13\x9b\xdak\xe8?'
tRp1482
sS'vb_converge_step'
p1483
NsS'vb_abs_tol'
p1484
F1.0000000000000001e-05
sS'vb_initialization'
p1485
S'long_patches'
p1486
sS'K_g'
p1487
I25
sS'N_thin'
p1488
I10
sa(dp1489
S'N_max_vb'
p1490
I1000
sS'dim'
p1491
I20
sS'random_seed'
p1492
I3357109945483634249
sS'final_number_of_components'
p1493
I13
sS'sys.argv'
p1494
(lp1495
S'pure_variational_first_proposal.py'
p1496
asS'k'
I10
sS'abandon_weights'
p1497
I00
sS'vb_rel_tol'
p1498
F0.0001
sS'N_adapt'
p1499
I500
sS'N_burn_in'
p1500
I1000
sS'critical_r'
p1501
F2
sS'N_MCMC'
p1502
I20000
sS'vb_initialization'
p1503
S'long_patches'
p1504
sS'N_perp_ess'
p1505
I10000
sS'vb_converge_step'
p1506
I24
sS'perplexity'
p1507
g18
(g20
S'\x87U<\x96\x11\xb0\xe6?'
tRp1508
sS'ess'
p1509
g18
(g20
S'&z\xb7\x90\xd6R\xdb?'
tRp1510
sS'vb_abs_tol'
p1511
F0.0001
sS'vb_prune'
p1512
F400
sS'K_g'
p1513
I25
sS'N_thin'
p1514
I10
sa(dp1515
S'N_max_vb'
p1516
I1000
sS'dim'
p1517
I20
sS'random_seed'
p1518
I3073722264617424754
sS'final_number_of_components'
p1519
I13
sS'sys.argv'
p1520
(lp1521
S'pure_variational_first_proposal.py'
p1522
asS'k'
I10
sS'critical_r'
p1523
F2
sS'vb_rel_tol'
p1524
F0.0001
sS'vb_prune'
p1525
F200
sS'N_adapt'
p1526
I500
sS'N_burn_in'
p1527
I1000
sS'abandon_weights'
p1528
I00
sS'N_MCMC'
p1529
I20000
sS'N_perp_ess'
p1530
I10000
sS'ess'
p1531
g18
(g20
S':\x97\xb2\x89~\x11\xb3?'
tRp1532
sS'perplexity'
p1533
g18
(g20
S'\x05\xef\xd9\xeb\xf1n\xe2?'
tRp1534
sS'vb_converge_step'
p1535
I31
sS'vb_abs_tol'
p1536
F0.0001
sS'vb_initialization'
p1537
S'long_patches'
p1538
sS'K_g'
p1539
I25
sS'N_thin'
p1540
I10
sa(dp1541
S'N_max_vb'
p1542
I1000
sS'dim'
p1543
I20
sS'random_seed'
p1544
I1579970024045934751
sS'final_number_of_components'
p1545
I13
sS'sys.argv'
p1546
(lp1547
S'pure_variational_first_proposal.py'
p1548
asS'k'
I10
sS'abandon_weights'
p1549
I00
sS'vb_rel_tol'
p1550
F0.0001
sS'N_adapt'
p1551
I500
sS'N_burn_in'
p1552
I1000
sS'critical_r'
p1553
F2
sS'N_MCMC'
p1554
I20000
sS'vb_initialization'
p1555
S'long_patches'
p1556
sS'N_perp_ess'
p1557
I10000
sS'vb_converge_step'
p1558
I38
sS'perplexity'
p1559
g18
(g20
S'\xcf\x12\x08\x11g\xfc\xe4?'
tRp1560
sS'ess'
p1561
g18
(g20
S'\xce\xbe\xad\xf9B\x18\xcf?'
tRp1562
sS'vb_abs_tol'
p1563
F0.0001
sS'vb_prune'
p1564
F400
sS'K_g'
p1565
I25
sS'N_thin'
p1566
I10
sa(dp1567
S'N_max_vb'
p1568
I1000
sS'dim'
p1569
I20
sS'random_seed'
p1570
I474373187657236573
sS'final_number_of_components'
p1571
I12
sS'sys.argv'
p1572
(lp1573
S'pure_variational_first_proposal.py'
p1574
asS'k'
I10
sS'critical_r'
p1575
F2
sS'vb_rel_tol'
p1576
F0.0001
sS'vb_prune'
p1577
F400
sS'N_adapt'
p1578
I500
sS'N_burn_in'
p1579
I1000
sS'abandon_weights'
p1580
I00
sS'N_MCMC'
p1581
I20000
sS'N_perp_ess'
p1582
I10000
sS'ess'
p1583
g18
(g20
S'\xe7\x01~\xe4\xfd\xaf\xc2?'
tRp1584
sS'perplexity'
p1585
g18
(g20
S'|v}\xd85%\xe5?'
tRp1586
sS'vb_converge_step'
p1587
I42
sS'vb_abs_tol'
p1588
F0.0001
sS'vb_initialization'
p1589
S'long_patches'
p1590
sS'K_g'
p1591
I25
sS'N_thin'
p1592
I10
sa(dp1593
S'N_max_vb'
p1594
I1000
sS'dim'
p1595
I20
sS'random_seed'
p1596
I1675999806323767289
sS'final_number_of_components'
p1597
I14
sS'sys.argv'
p1598
(lp1599
S'pure_variational_first_proposal.py'
p1600
asS'k'
I10
sS'abandon_weights'
p1601
I00
sS'vb_rel_tol'
p1602
F0.0001
sS'N_adapt'
p1603
I500
sS'N_burn_in'
p1604
I1000
sS'critical_r'
p1605
F2
sS'N_MCMC'
p1606
I20000
sS'vb_initialization'
p1607
S'long_patches'
p1608
sS'N_perp_ess'
p1609
I10000
sS'vb_converge_step'
p1610
I51
sS'perplexity'
p1611
g18
(g20
S'\x1bf\x18\xf2\xc7\x15\xe7?'
tRp1612
sS'ess'
p1613
g18
(g20
S'P\xccW\xa3\xa9\x8a\xd9?'
tRp1614
sS'vb_abs_tol'
p1615
F0.0001
sS'vb_prune'
p1616
F200
sS'K_g'
p1617
I25
sS'N_thin'
p1618
I10
sa(dp1619
S'N_max_vb'
p1620
I1000
sS'dim'
p1621
I20
sS'random_seed'
p1622
I1641435182526026461
sS'final_number_of_components'
p1623
I1
sS'sys.argv'
p1624
(lp1625
S'pure_variational_first_proposal.py'
p1626
asS'k'
I10
sS'critical_r'
p1627
F2
sS'vb_rel_tol'
p1628
F1e-10
sS'vb_prune'
p1629
F1000
sS'N_adapt'
p1630
I500
sS'N_burn_in'
p1631
I1000
sS'abandon_weights'
p1632
I00
sS'N_MCMC'
p1633
I20000
sS'N_perp_ess'
p1634
I10000
sS'ess'
p1635
g18
(g20
S'\xd6u\xf2\x919\xab\xc0?'
tRp1636
sS'perplexity'
p1637
g18
(g20
S'\x83xi\xbd\xb9}\xd5?'
tRp1638
sS'vb_converge_step'
p1639
I2
sS'vb_abs_tol'
p1640
F1.0000000000000001e-05
sS'vb_initialization'
p1641
S'long_patches'
p1642
sS'K_g'
p1643
I1
sS'N_thin'
p1644
I100
sa(dp1645
S'vb_rel_tol'
p1646
F1e-10
sS'abandon_weights'
p1647
I00
sS'perplexity'
p1648
g18
(g20
S'j\xe752\x84\xa3\xd2?'
tRp1649
sS'N_max_vbm'
p1650
I5
sS'N_thin'
p1651
I10
sS'N_max_vb'
p1652
I1000
sS'ess'
p1653
g18
(g20
S'\xc5\x9f<\x19\nV\xc1?'
tRp1654
sS'N_burn_in'
p1655
I1000
sS'N_MCMC'
p1656
I10000
sS'K_g'
p1657
I15
sS'number_of_components_after_vbm'
p1658
I1
sS'vb_abs_tol'
p1659
F1.0000000000000001e-05
sS'final_number_of_components'
p1660
I1
sS'random_seed'
p1661
I4429305427848999461
sS'sys.argv'
p1662
(lp1663
S'variational_with_merge.py'
p1664
asS'vbm_converge_step'
p1665
I3
sS'L'
I100
sS'N_perp_ess'
p1666
I10000
sS'vb_converge_step'
p1667
I2
sS'vb_prune'
p1668
F333.33333333333331
sS'dim'
p1669
I2
sS'k'
I10
sS'pypmc_version'
p1670
S'0.11'
p1671
sS'N_adapt'
p1672
I500
sS'vbm_prune'
p1673
I01
sS'critical_r'
p1674
F2
sS'number_of_components_after_vb'
p1675
I1
sa(dp1676
S'vb_rel_tol'
p1677
F1e-10
sS'abandon_weights'
p1678
I00
sS'perplexity'
p1679
g18
(g20
S'_\xdfR\xed\xb7\x97\xd1?'
tRp1680
sS'N_max_vbm'
p1681
I5
sS'K_g'
p1682
I15
sS'N_max_vb'
p1683
I1000
sS'ess'
p1684
g18
(g20
S'\x9b~D\xa7\xd3\xef\xc1?'
tRp1685
sS'N_burn_in'
p1686
I1000
sS'N_MCMC'
p1687
I10000
sS'N_thin'
p1688
I10
sS'number_of_components_after_vbm'
p1689
I1
sS'vb_abs_tol'
p1690
F1.0000000000000001e-05
sS'final_number_of_components'
p1691
I1
sS'random_seed'
p1692
I1641987203494770
sS'sys.argv'
p1693
(lp1694
S'variational_with_merge.py'
p1695
asS'vbm_converge_step'
p1696
I5
sS'L'
I100
sS'N_perp_ess'
p1697
I10000
sS'vb_converge_step'
p1698
I2
sS'vb_prune'
p1699
F333.33333333333331
sS'dim'
p1700
I2
sS'k'
I10
sS'pypmc_version'
p1701
S'0.11'
p1702
sS'N_adapt'
p1703
I500
sS'vbm_prune'
p1704
I01
sS'critical_r'
p1705
F2
sS'number_of_components_after_vb'
p1706
I1
sa(dp1707
S'vb_rel_tol'
p1708
F1e-10
sS'abandon_weights'
p1709
I00
sS'perplexity'
p1710
g18
(g20
S'VQ\xc0\x8ez\xca\xd6?'
tRp1711
sS'N_max_vbm'
p1712
I5
sS'N_thin'
p1713
I10
sS'N_max_vb'
p1714
I1000
sS'ess'
p1715
g18
(g20
S'\x1a\xfa\x8de\xac\xa5\x88?'
tRp1716
sS'N_burn_in'
p1717
I1000
sS'N_MCMC'
p1718
I10000
sS'K_g'
p1719
I15
sS'number_of_components_after_vbm'
p1720
I2
sS'vb_abs_tol'
p1721
F1.0000000000000001e-05
sS'final_number_of_components'
p1722
I2
sS'random_seed'
p1723
I1219755175272063353
sS'sys.argv'
p1724
(lp1725
S'variational_with_merge.py'
p1726
asS'vbm_converge_step'
p1727
NsS'L'
I100
sS'N_perp_ess'
p1728
I10000
sS'vb_converge_step'
p1729
I82
sS'vb_prune'
p1730
F333.33333333333331
sS'dim'
p1731
I2
sS'k'
I10
sS'pypmc_version'
p1732
S'0.11'
p1733
sS'N_adapt'
p1734
I500
sS'vbm_prune'
p1735
I01
sS'critical_r'
p1736
F2
sS'number_of_components_after_vb'
p1737
I2
sa(dp1738
S'vb_rel_tol'
p1739
F1e-10
sS'abandon_weights'
p1740
I00
sS'perplexity'
p1741
g18
(g20
S'\xdc&\xaa\x81\xab\xb1\xd4?'
tRp1742
sS'N_max_vbm'
p1743
I5
sS'K_g'
p1744
I15
sS'N_max_vb'
p1745
I1000
sS'ess'
p1746
g18
(g20
S',\xc5Y\xc9\x10\x01\xc5?'
tRp1747
sS'N_burn_in'
p1748
I1000
sS'N_MCMC'
p1749
I10000
sS'N_thin'
p1750
I10
sS'number_of_components_after_vbm'
p1751
I1
sS'vb_abs_tol'
p1752
F1.0000000000000001e-05
sS'final_number_of_components'
p1753
I1
sS'random_seed'
p1754
I3101782648440151955
sS'sys.argv'
p1755
(lp1756
S'variational_with_merge.py'
p1757
asS'vbm_converge_step'
p1758
I3
sS'L'
I100
sS'N_perp_ess'
p1759
I10000
sS'vb_converge_step'
p1760
I2
sS'vb_prune'
p1761
F333.33333333333331
sS'dim'
p1762
I2
sS'k'
I10
sS'pypmc_version'
p1763
S'0.11'
p1764
sS'N_adapt'
p1765
I500
sS'vbm_prune'
p1766
I01
sS'critical_r'
p1767
F2
sS'number_of_components_after_vb'
p1768
I1
sa(dp1769
S'vb_rel_tol'
p1770
F1e-10
sS'abandon_weights'
p1771
I00
sS'perplexity'
p1772
g18
(g20
S't\x13\x8b\xfd\xfe\xcb\xe8?'
tRp1773
sS'N_max_vbm'
p1774
I5
sS'N_thin'
p1775
I10
sS'N_max_vb'
p1776
I1000
sS'ess'
p1777
g18
(g20
S'P\xc1~\x9d)\xdc\xc6?'
tRp1778
sS'N_burn_in'
p1779
I1000
sS'N_MCMC'
p1780
I20000
sS'K_g'
p1781
I15
sS'number_of_components_after_vbm'
p1782
I3
sS'vb_abs_tol'
p1783
F1.0000000000000001e-05
sS'final_number_of_components'
p1784
I3
sS'random_seed'
p1785
I3615827621057970169
sS'sys.argv'
p1786
(lp1787
S'variational_with_merge.py'
p1788
asS'vbm_converge_step'
p1789
NsS'L'
I100
sS'N_perp_ess'
p1790
I10000
sS'vb_converge_step'
p1791
I93
sS'vb_prune'
p1792
F666.66666666666663
sS'dim'
p1793
I10
sS'k'
I10
sS'pypmc_version'
p1794
S'0.11'
p1795
sS'N_adapt'
p1796
I500
sS'vbm_prune'
p1797
I01
sS'critical_r'
p1798
F2
sS'number_of_components_after_vb'
p1799
I3
sa(dp1800
S'vb_rel_tol'
p1801
F1e-10
sS'abandon_weights'
p1802
I00
sS'perplexity'
p1803
g18
(g20
S'\x98\x81\x94\xe5o&\xeb?'
tRp1804
sS'N_max_vbm'
p1805
I5
sS'K_g'
p1806
I15
sS'N_max_vb'
p1807
I1000
sS'ess'
p1808
g18
(g20
S'\xef\x05_h\xd3\x9d\xe6?'
tRp1809
sS'N_burn_in'
p1810
I1000
sS'N_MCMC'
p1811
I20000
sS'N_thin'
p1812
I10
sS'number_of_components_after_vbm'
p1813
I3
sS'vb_abs_tol'
p1814
F1.0000000000000001e-05
sS'final_number_of_components'
p1815
I3
sS'random_seed'
p1816
I3778477232096461958
sS'sys.argv'
p1817
(lp1818
S'variational_with_merge.py'
p1819
asS'vbm_converge_step'
p1820
NsS'L'
I100
sS'N_perp_ess'
p1821
I10000
sS'vb_converge_step'
p1822
I79
sS'vb_prune'
p1823
F666.66666666666663
sS'dim'
p1824
I10
sS'k'
I10
sS'pypmc_version'
p1825
S'0.11'
p1826
sS'N_adapt'
p1827
I500
sS'vbm_prune'
p1828
I01
sS'critical_r'
p1829
F2
sS'number_of_components_after_vb'
p1830
I3
sa(dp1831
S'vb_rel_tol'
p1832
F1e-10
sS'abandon_weights'
p1833
I00
sS'perplexity'
p1834
g18
(g20
S"\x13\xba\xa5\xfe\xf9'\xeb?"
tRp1835
sS'N_max_vbm'
p1836
I5
sS'N_thin'
p1837
I10
sS'N_max_vb'
p1838
I1000
sS'ess'
p1839
g18
(g20
S'I\xaa\xb0f\xcf\x12\xe7?'
tRp1840
sS'N_burn_in'
p1841
I1000
sS'N_MCMC'
p1842
I20000
sS'K_g'
p1843
I15
sS'number_of_components_after_vbm'
p1844
I3
sS'vb_abs_tol'
p1845
F1.0000000000000001e-05
sS'final_number_of_components'
p1846
I3
sS'random_seed'
p1847
I3417566593429831024
sS'sys.argv'
p1848
(lp1849
S'variational_with_merge.py'
p1850
asS'vbm_converge_step'
p1851
NsS'L'
I100
sS'N_perp_ess'
p1852
I10000
sS'vb_converge_step'
p1853
I140
sS'vb_prune'
p1854
F666.66666666666663
sS'dim'
p1855
I10
sS'k'
I10
sS'pypmc_version'
p1856
S'0.11'
p1857
sS'N_adapt'
p1858
I500
sS'vbm_prune'
p1859
I01
sS'critical_r'
p1860
F2
sS'number_of_components_after_vb'
p1861
I3
sa(dp1862
S'vb_rel_tol'
p1863
F1e-10
sS'abandon_weights'
p1864
I00
sS'perplexity'
p1865
g18
(g20
S'x\xc4\x0b^\xed\x90\xec?'
tRp1866
sS'N_max_vbm'
p1867
I5
sS'K_g'
p1868
I15
sS'N_max_vb'
p1869
I1000
sS'ess'
p1870
g18
(g20
S'\xae^\xaa7\xbd\r\xe3?'
tRp1871
sS'N_burn_in'
p1872
I1000
sS'N_MCMC'
p1873
I20000
sS'N_thin'
p1874
I10
sS'number_of_components_after_vbm'
p1875
I4
sS'vb_abs_tol'
p1876
F1.0000000000000001e-05
sS'final_number_of_components'
p1877
I4
sS'random_seed'
p1878
I2454872270408396354
sS'sys.argv'
p1879
(lp1880
S'variational_with_merge.py'
p1881
asS'vbm_converge_step'
p1882
NsS'L'
I100
sS'N_perp_ess'
p1883
I10000
sS'vb_converge_step'
p1884
I231
sS'vb_prune'
p1885
F666.66666666666663
sS'dim'
p1886
I10
sS'k'
I10
sS'pypmc_version'
p1887
S'0.11'
p1888
sS'N_adapt'
p1889
I500
sS'vbm_prune'
p1890
I01
sS'critical_r'
p1891
F2
sS'number_of_components_after_vb'
p1892
I4
sa(dp1893
S'vb_rel_tol'
p1894
F1e-10
sS'abandon_weights'
p1895
I00
sS'perplexity'
p1896
g18
(g20
S'\xcd\xb1\xab\x9d\xcf.\xe5?'
tRp1897
sS'N_max_vbm'
p1898
I5
sS'N_thin'
p1899
I10
sS'N_max_vb'
p1900
I1000
sS'ess'
p1901
g18
(g20
S'z\xb5P\x95\x0f\xe2\xda?'
tRp1902
sS'N_burn_in'
p1903
I1000
sS'N_MCMC'
p1904
I20000
sS'K_g'
p1905
I25
sS'number_of_components_after_vbm'
p1906
I2
sS'vb_abs_tol'
p1907
F1.0000000000000001e-05
sS'final_number_of_components'
p1908
I2
sS'random_seed'
p1909
I2973977361288393600
sS'sys.argv'
p1910
(lp1911
S'variational_with_merge.py'
p1912
asS'vbm_converge_step'
p1913
NsS'L'
I200
sS'N_perp_ess'
p1914
I10000
sS'vb_converge_step'
p1915
I55
sS'vb_prune'
p1916
F400
sS'dim'
p1917
I20
sS'k'
I10
sS'pypmc_version'
p1918
S'0.11'
p1919
sS'N_adapt'
p1920
I500
sS'vbm_prune'
p1921
I01
sS'critical_r'
p1922
F2
sS'number_of_components_after_vb'
p1923
I2
sa(dp1924
S'vb_rel_tol'
p1925
F1e-10
sS'abandon_weights'
p1926
I00
sS'perplexity'
p1927
g18
(g20
S'\xda\xc9=\xe1\xc7$\xe8?'
tRp1928
sS'N_max_vbm'
p1929
I5
sS'K_g'
p1930
I25
sS'N_max_vb'
p1931
I1000
sS'ess'
p1932
g18
(g20
S'\xc5\xb3t/\xf7c\xd0?'
tRp1933
sS'N_burn_in'
p1934
I1000
sS'N_MCMC'
p1935
I20000
sS'N_thin'
p1936
I10
sS'number_of_components_after_vbm'
p1937
I4
sS'vb_abs_tol'
p1938
F1.0000000000000001e-05
sS'final_number_of_components'
p1939
I4
sS'random_seed'
p1940
I1701323378937597087
sS'sys.argv'
p1941
(lp1942
S'variational_with_merge.py'
p1943
asS'vbm_converge_step'
p1944
NsS'L'
I200
sS'N_perp_ess'
p1945
I10000
sS'vb_converge_step'
p1946
I315
sS'vb_prune'
p1947
F400
sS'dim'
p1948
I20
sS'k'
I10
sS'pypmc_version'
p1949
S'0.11'
p1950
sS'N_adapt'
p1951
I500
sS'vbm_prune'
p1952
I01
sS'critical_r'
p1953
F2
sS'number_of_components_after_vb'
p1954
I4
sa(dp1955
S'vb_rel_tol'
p1956
F1e-10
sS'abandon_weights'
p1957
I00
sS'perplexity'
p1958
g18
(g20
S'\x9c\x97\x88*\x01N\xe8?'
tRp1959
sS'N_max_vbm'
p1960
I5
sS'N_thin'
p1961
I10
sS'N_max_vb'
p1962
I1000
sS'ess'
p1963
g18
(g20
S'$\xe0\x14Q\xd7\x82\xdc?'
tRp1964
sS'N_burn_in'
p1965
I1000
sS'N_MCMC'
p1966
I20000
sS'K_g'
p1967
I25
sS'number_of_components_after_vbm'
p1968
I5
sS'vb_abs_tol'
p1969
F1.0000000000000001e-05
sS'final_number_of_components'
p1970
I4
sS'random_seed'
p1971
I1328956022222678680
sS'sys.argv'
p1972
(lp1973
S'variational_with_merge.py'
p1974
asS'vbm_converge_step'
p1975
NsS'L'
I200
sS'N_perp_ess'
p1976
I10000
sS'vb_converge_step'
p1977
I317
sS'vb_prune'
p1978
F400
sS'dim'
p1979
I20
sS'k'
I10
sS'pypmc_version'
p1980
S'0.11'
p1981
sS'N_adapt'
p1982
I500
sS'vbm_prune'
p1983
I01
sS'critical_r'
p1984
F2
sS'number_of_components_after_vb'
p1985
I4
sa(dp1986
S'final_number_of_components'
p1987
I4
sS'random_seed'
p1988
I3468121006323743506
sS'sys.argv'
p1989
(lp1990
S'variational_with_merge.py'
p1991
asS'L'
I200
sS'vb_rel_tol'
p1992
F1e-10
sS'vbm_converge_step'
p1993
NsS'abandon_weights'
p1994
I00
sS'N_perp_ess'
p1995
I10000
sS'perplexity'
p1996
g18
(g20
S'\\\xcfp\xcfJ\xee\xe8?'
tRp1997
sS'vb_converge_step'
p1998
I558
sS'N_max_vbm'
p1999
I5
sS'vb_prune'
p2000
F400
sS'N_thin'
p2001
I10
sS'number_of_components_after_vb'
p2002
I4
sS'N_max_vb'
p2003
I1000
sS'dim'
p2004
I20
sS'ess'
p2005
g18
(g20
S'^\xe1\x08~A\r\xd6?'
tRp2006
sS'vbm_prune'
p2007
I01
sS'k'
I10
sS'pypmc_version'
p2008
S'0.11'
p2009
sS'N_adapt'
p2010
I500
sS'N_burn_in'
p2011
I1000
sS'critical_r'
p2012
F2
sS'N_MCMC'
p2013
I20000
sS'K_g'
p2014
I25
sS'number_of_components_after_vbm'
p2015
I6
sS'vb_abs_tol'
p2016
F1.0000000000000001e-05
sa.